(dp0
S'mobley_1323538'
p1
(dp2
S'smiles'
p3
S'CCOP(=O)(OCC)OCC'
p4
sS'expt_reference'
p5
S'10.1039/P29900000291'
p6
sS'd_calc'
p7
F0.1
sS'notes'
p8
(lp9
S'Experimental uncertainty as suggested by 10.1039/P29900000291 -- 0.2 kcal/mol.'
p10
asS'iupac'
p11
S'triethylphosphate'
p12
sS'PubChemID'
p13
I6535
sS'd_expt'
p14
F0.2
sS'expt'
p15
F-7.5
sS'groups'
p16
(lp17
S'phosphoric acid ester'
p18
asS'calc'
p19
F-10.8
sS'calc_reference'
p20
S'10.1021/jp0667442'
p21
ssS'mobley_2661134'
p22
(dp23
g3
S'c1cc(cc(c1)O)C#N'
p24
sS'expt_reference'
p25
S'10.1021/jp0764384'
p26
sS'd_calc'
p27
F0.03
sg8
(lp28
S'Experimental uncertainty not presently available, so assigned a default value.'
p29
asS'iupac'
p30
S'3-hydroxybenzonitrile'
p31
sg13
I13394
sg14
F0.6
sS'expt'
p32
F-9.65
sg16
(lp33
S'phenol or hydroxyhetarene'
p34
aS'carbonitrile'
p35
aS'aromatic'
p36
asS'calc'
p37
F-6.99
sS'calc_reference'
p38
S'10.1021/ct800409d'
p39
ssS'mobley_6929123'
p40
(dp41
g3
S'COC(=O)CCl'
p42
sg25
S'10.1139/v80-201'
p43
sg27
F0.02
sg8
(lp44
g29
asg30
S'methyl 2-chloroacetate'
p45
sg13
I7295
sg14
F0.6
sg32
F-4.0
sg16
(lp46
S'alkyl chloride'
p47
aS'carboxylic acid ester'
p48
asg37
F-3.92
sg38
g39
ssS'mobley_3395921'
p49
(dp50
g3
S'C1CCOCC1'
p51
sg25
g26
sg27
F0.02
sg8
(lp52
g29
asg30
S'tetrahydropyran'
p53
sg13
I8894
sg14
F0.6
sg32
F-3.12
sg16
(lp54
S'dialkyl ether'
p55
aS'heterocyclic'
p56
asg37
F-1.78
sg38
g39
ssS'mobley_5449201'
p57
(dp58
g3
S'CCCCC'
p59
sg5
g6
sg7
F0.1
sg8
(lp60
g10
asg11
S'n-pentane'
p61
sg13
I8003
sg14
F0.2
sg15
F2.3
sg16
(lp62
S''
p63
asg19
F2.6
sg20
g21
ssS'mobley_5631798'
p64
(dp65
g3
S'N'
p66
sg25
g26
sg27
F0.01
sg8
(lp67
g29
asg30
S'ammonia'
p68
sg13
I222
sg14
F0.6
sg32
F-4.29
sg16
(lp69
S''
p70
asg37
F-4.04
sg38
g39
ssS'mobley_1674094'
p71
(dp72
g3
S'CCCCC#C'
p73
sg25
g26
sg27
F0.02
sg8
(lp74
g29
asg30
S'hex-1-yne'
p75
sg13
I12732
sg14
F0.6
sg32
F0.29
sg16
(lp76
S'alkyne'
p77
asg37
F0.79
sg38
g39
ssS'mobley_9838013'
p78
(dp79
g3
S'CCC(C)(C)O'
p80
sg25
g26
sg27
F0.03
sg8
(lp81
g29
asg30
S'2-methylbutan-2-ol'
p82
sg13
I6405
sg14
F0.6
sg32
F-4.43
sg16
(lp83
S'tertiary alcohol'
p84
asg37
F-2.96
sg38
g39
ssS'mobley_1735893'
p85
(dp86
g3
S'CCCCCC(=O)O'
p87
sg25
g26
sg27
F0.03
sg8
(lp88
g29
asg30
S'hexanoic acid'
p89
sg13
I8892
sg14
F0.6
sg32
F-6.21
sg16
(lp90
S'carboxylic acid'
p91
asg37
F-5.08
sg38
g39
ssS'mobley_2198613'
p92
(dp93
g3
S'CCCl'
p94
sg25
g26
sg27
F0.02
sg8
(lp95
g29
asg30
S'chloroethane'
p96
sg13
I6337
sg14
F0.6
sg32
F-0.63
sg16
(lp97
S'alkyl chloride'
p98
asg37
F0.78
sg38
g39
ssS'mobley_1449384'
p99
(dp100
g3
S'Cc1ccc(cc1)C(C)C'
p101
sg25
g26
sg27
F0.03
sg8
(lp102
g29
asg30
S'1-isopropyl-4-methyl-benzene'
p103
sg13
I7463
sg14
F0.6
sg32
F-0.68
sg16
(lp104
S'aromatic'
p105
asg37
F0.2
sg38
g39
ssS'mobley_3682850'
p106
(dp107
g3
S'C1CCC(=O)CC1'
p108
sg25
g26
sg27
F0.02
sg8
(lp109
g29
asg30
S'cyclohexanone'
p110
sg13
I7967
sg14
F0.6
sg32
F-4.91
sg16
(lp111
S'ketone'
p112
asg37
F-3.84
sg38
g39
ssS'mobley_3264884'
p113
(dp114
g3
S'c1ccc2cc(ccc2c1)N'
p115
sg25
g26
sg27
F0.03
sg8
(lp116
g29
asg30
S'naphthalen-2-amine'
p117
sg13
I7057
sg14
F0.6
sg32
F-7.47
sg16
(lp118
S'primary amine'
p119
aS'primary aromatic amine'
p120
aS'aromatic'
p121
asg37
F-7.87
sg38
g39
ssS'mobley_8614858'
p122
(dp123
g3
S'CCCCCCC'
p124
sg25
g26
sg27
F0.02
sg8
(lp125
g29
asg30
S'heptane'
p126
sg13
I8900
sg14
F0.6
sg32
F2.67
sg16
(lp127
S''
p128
asg37
F3.2
sg38
g39
ssS'mobley_4043987'
p129
(dp130
g3
S'CCCCC(C)C'
p131
sg25
g26
sg27
F0.03
sg8
(lp132
g29
asg30
S'2-methylhexane'
p133
sg13
I11582
sg14
F0.6
sg32
F2.93
sg16
(lp134
S''
p135
asg37
F3.0
sg38
g39
ssS'mobley_2864987'
p136
(dp137
g3
S'CCC[C@@H](C)O'
p138
sg25
g26
sg27
F0.02
sg8
(lp139
S'Renamed mobley_2864987 from pentan-2-ol to (2R)-pentan-2-ol (the name from the 3D structure) since the former did not completely specify stereochemistry.\n'
p140
asg30
S'pentan-2-ol'
p141
sg13
I22386
sg14
F0.6
sg32
F-4.39
sg16
(lp142
S'secondary alcohol'
p143
asg37
F-2.87
sg38
g39
ssS'mobley_859464'
p144
(dp145
g3
S'CC(C)COC(=O)C'
p146
sg25
g26
sg27
F0.02
sg8
(lp147
g29
asg30
S'isobutyl acetate'
p148
sg13
I8038
sg14
F0.6
sg32
F-2.36
sg16
(lp149
S'carboxylic acid ester'
p150
asg37
F-2.8
sg38
g39
ssS'mobley_3053621'
p151
(dp152
g3
S'c1ccccc1'
p153
sg5
g6
sg7
F0.1
sg8
(lp154
g10
asg11
S'benzene'
p155
sg13
I241
sg14
F0.2
sg15
F-0.9
sg16
(lp156
S'aromatic'
p157
asg19
F-0.6
sg20
g21
ssS'mobley_4689084'
p158
(dp159
S'smiles'
p160
S'CC(=O)OCCOC(=O)C'
p161
sS'calc'
p162
F-8.41
sS'd_calc'
p163
F0.06
sS'notes'
p164
(lp165
S'Called "ethylene glycol diacetate" in Nicholls et al., but renamed according to IUPAC "CC(=O)OCCOC(=O)C" for better automation. This was excluded from the set in v0.1 but re-added in v0.2 due to an error constructing v0.1.\n'
p166
aS'Topology and coordinate files re-generated Jan. 2014 for v0.2 from original .mol2 files.\n'
p167
aS'Experimental uncertainty not presently available; assigned a default value.'
p168
aS'Experimental uncertainty estimate updated to 0.2 as of v0.2 to match uncertainty estimate given in Nicholls et al. paper.\n'
p169
asS'iupac'
p170
S'2-acetoxyethyl acetate'
p171
sg13
I8121
sS'd_expt'
p172
F0.2
sS'expt'
p173
F-6.34
sS'groups'
p174
(lp175
S'carboxylic acid ester'
p176
asS'expt_reference'
p177
S'10.1021/jm070549+'
p178
sS'calc_reference'
p179
g178
ssS'mobley_1352110'
p180
(dp181
g3
S'CCCCN(CC)C(=O)SCCC'
p182
sS'expt_reference'
p183
S'10.1021/jp806724u'
p184
sS'd_calc'
p185
F0.04
sg8
(lp186
g29
asS'iupac'
p187
S'pebulate'
p188
sg13
I14215
sS'd_expt'
p189
F1.93
sS'expt'
p190
F-3.64
sg16
(lp191
S'thiocarbamic acid ester'
p192
asS'calc'
p193
F-4.85
sS'calc_reference'
p194
S'10.1021/jp806838b'
p195
ssS'mobley_4291494'
p196
(dp197
g3
S'c1ccnc(c1)Cl'
p198
sg25
g26
sg27
F0.02
sg8
(lp199
g29
asg30
S'2-chloropyridine'
p200
sg13
I7977
sg14
F0.6
sg32
F-4.39
sg16
(lp201
S'aryl chloride'
p202
aS'aromatic'
p203
aS'heterocyclic'
p204
asg37
F-3.36
sg38
g39
ssS'mobley_2364370'
p205
(dp206
g3
S'CCCCOC(=O)C'
p207
sg25
g26
sg27
F0.02
sg8
(lp208
g29
asg30
S'butyl acetate'
p209
sg13
I31272
sg14
F0.6
sg32
F-2.64
sg16
(lp210
S'carboxylic acid ester'
p211
asg37
F-3.17
sg38
g39
ssS'mobley_1893815'
p212
(dp213
g3
S'C(C(Cl)(Cl)Cl)Cl'
p214
sS'expt_reference'
p215
S'10.1007/s10822-012-9568-8'
p216
sS'd_calc'
p217
F0.02
sg8
(lp218
g29
asS'iupac'
p219
S'1,1,1,2-tetrachloroethane'
p220
sg13
I12418
sS'd_expt'
p221
F0.1
sS'expt'
p222
F-1.43
sg16
(lp223
S'alkyl chloride'
p224
asS'calc'
p225
F-0.11
sS'calc_reference'
p226
S'10.1007/s10822-011-9528-8'
p227
ssS'mobley_5200358'
p228
(dp229
g3
S'CC(C)(/C=N\\OC(=O)NC)SC'
p230
sg183
g184
sg185
F0.05
sg8
(lp231
S'Renamed mobley_5200358 from aldicarb to [(Z)-(2-methyl-2-methylsulfanyl-propylidene)amino] N-methylcarbamate (the name from the 3D structure) since the former did not completely specify stereochemistry.\n'
p232
asg187
S'aldicarb'
p233
sg13
I9570071
sg189
F0.1
sg190
F-9.84
sg16
(lp234
S'thioether'
p235
aS'carbamic acid'
p236
asg193
F-10.27
sg194
g195
ssS'mobley_9246215'
p237
(dp238
g3
S'C=CCC=C'
p239
sg25
g26
sg27
F0.02
sg8
(lp240
g29
asg30
S'penta-1,4-diene'
p241
sg13
I11587
sg14
F0.6
sg32
F0.93
sg16
(lp242
S'alkene'
p243
asg37
F2.18
sg38
g39
ssS'mobley_5110043'
p244
(dp245
g3
S'Cc1ccc2cc(ccc2c1)C'
p246
sg25
g26
sg27
F0.03
sg8
(lp247
g29
asg30
S'2,6-dimethylnaphthalene'
p248
sg13
I11387
sg14
F0.6
sg32
F-2.63
sg16
(lp249
S'aromatic'
p250
asg37
F-2.65
sg38
g39
ssS'mobley_6190089'
p251
(dp252
g3
S'C(C(Cl)Cl)(Cl)Cl'
p253
sg215
g216
sg217
F0.02
sg8
(lp254
g29
asg219
S'1,1,2,2-tetrachloroethane'
p255
sg13
I6591
sg221
F0.1
sg222
F-2.37
sg16
(lp256
S'alkyl chloride'
p257
asg225
F-0.53
sg226
g227
ssS'mobley_6266306'
p258
(dp259
g3
S'C1CNC1'
p260
sg25
g26
sg27
F0.02
sg8
(lp261
g29
asg30
S'azetidine'
p262
sg13
I10422
sg14
F0.6
sg32
F-5.56
sg16
(lp263
S'secondary amine'
p264
aS'secondary aliphatic amine (dialkylamine)'
p265
aS'heterocyclic'
p266
asg37
F-3.41
sg38
g39
ssS'mobley_2850833'
p267
(dp268
g3
S'c1ccc(c(c1)C=O)O'
p269
sS'expt_reference'
p270
S'SAMPL4_Guthrie'
p271
sS'd_calc'
p272
F0.018
sg8
(lp273
g29
asS'iupac'
p274
S'2-hydroxybenzaldehyde'
p275
sg13
I6998
sS'd_expt'
p276
cnumpy.core.multiarray
scalar
p277
(cnumpy
dtype
p278
(S'f8'
p279
I0
I1
tp280
Rp281
(I3
S'<'
p282
NNNI-1
I-1
I0
tp283
bS'\x9a\x99\x99\x99\x99\x99\xb9?'
p284
tp285
Rp286
sS'expt'
p287
g277
(g281
S'\xb8\x1e\x85\xebQ\xb8\x12\xc0'
p288
tp289
Rp290
sg16
(lp291
S'aldehyde'
p292
aS'phenol or hydroxyhetarene'
p293
aS'aromatic'
p294
asS'calc'
p295
F-4.89
sS'calc_reference'
p296
S'SAMPL4_Mobley'
p297
ssS'mobley_9246351'
p298
(dp299
g3
S'C(Br)Br'
p300
sg25
g26
sg27
F0.02
sg8
(lp301
g29
asg30
S'dibromomethane'
p302
sg13
I3024
sg14
F0.6
sg32
F-1.96
sg16
(lp303
S'alkyl bromide'
p304
asg37
F0.87
sg38
g39
ssS'mobley_8011706'
p305
(dp306
g3
S'CN(C)C=O'
p307
sg25
g26
sg27
F0.03
sg8
(lp308
g29
asg30
S'N,N-dimethylformamide'
p309
sg13
I6228
sg14
F0.6
sg32
F-7.81
sg16
(lp310
S'tertiary carboxylic acid amide'
p311
asg37
F-6.86
sg38
g39
ssS'mobley_4924862'
p312
(dp313
g3
S'CC(C)CCOC=O'
p314
sg25
g26
sg27
F0.02
sg8
(lp315
g29
asg30
S'isopentyl formate'
p316
sg13
I8052
sg14
F0.6
sg32
F-2.13
sg16
(lp317
S'carboxylic acid ester'
p318
asg37
F-3.39
sg38
g39
ssS'mobley_9942801'
p319
(dp320
g3
S'CCc1ccc(cc1)C'
p321
sg25
g26
sg27
F0.02
sg8
(lp322
g29
asg30
S'1-ethyl-4-methyl-benzene'
p323
sg13
I12160
sg14
F0.6
sg32
F-0.95
sg16
(lp324
S'aromatic'
p325
asg37
F-0.05
sg38
g39
ssS'mobley_7578802'
p326
(dp327
g3
S'C(Br)(Br)Br'
p328
sg25
g26
sg27
F0.02
sg8
(lp329
g29
asg30
S'bromoform'
p330
sg13
I5558
sg14
F0.6
sg32
F-2.13
sg16
(lp331
S'halogen derivative'
p332
asg37
F0.88
sg38
g39
ssS'mobley_8861672'
p333
(dp334
g3
S'Cc1ccnc(c1)C'
p335
sg25
g26
sg27
F0.02
sg8
(lp336
g29
asg30
S'2,4-dimethylpyridine'
p337
sg13
I7936
sg14
F0.6
sg32
F-4.86
sg16
(lp338
S'aromatic'
p339
aS'heterocyclic'
p340
asg37
F-3.18
sg38
g39
ssS'mobley_194273'
p341
(dp342
g3
S'CC[C@H](C)n1c(=O)c(c([nH]c1=O)C)Br'
p343
sg183
g184
sg185
F0.04
sg8
(lp344
S'Renamed mobley_194273 from bromacil to 5-bromo-6-methyl-3-[(1S)-1-methylpropyl]-1H-pyrimidine-2,4-dione (the name from the 3D structure) since the former did not completely specify stereochemistry.\n'
p345
asg187
S'bromacil'
p346
sg13
I9411
sg189
F1.93
sg190
F-9.73
sg16
(lp347
S'aryl bromide'
p348
aS'oxo(het)arene'
p349
aS'aromatic'
p350
aS'heterocyclic'
p351
asg193
F-13.74
sg194
g195
ssS'mobley_1244778'
p352
(dp353
g3
S'C1CCCC(CC1)O'
p354
sg25
g26
sg27
F0.05
sg8
(lp355
g29
asg30
S'cycloheptanol'
p356
sg13
I10399
sg14
F0.6
sg32
F-5.48
sg16
(lp357
S'secondary alcohol'
p358
asg37
F-4.15
sg38
g39
ssS'mobley_468867'
p359
(dp360
g3
S'C1=C[C@@H]([C@@H]2[C@H]1[C@@]3(C(=C([C@]2(C3(Cl)Cl)Cl)Cl)Cl)Cl)Cl'
p361
sg183
g184
sg185
F0.03
sg8
(lp362
g29
asg187
S'heptachlor'
p363
sg13
I3589
sg189
F0.1
sg190
F-2.55
sg16
(lp364
S'alkyl chloride'
p365
aS'alkene'
p366
asg193
F-0.98
sg194
g195
ssS'mobley_8827942'
p367
(dp368
g3
S'c1ccc2c(c1)Oc3c(cc(c(c3O2)Cl)Cl)Cl'
p369
sg215
g216
sg217
F0.03
sg8
(lp370
g29
asg219
S'1,2,4-trichlorodibenzo-p-dioxin'
p371
sg13
I38253
sg221
F0.1
sg222
F-4.05
sg16
(lp372
S'diaryl ether'
p373
aS'aryl chloride'
p374
aS'aromatic'
p375
aS'heterocyclic'
p376
asg225
F-3.29
sg226
g227
ssS'mobley_3738859'
p377
(dp378
g3
S'CCCCCBr'
p379
sg5
g6
sg7
F0.1
sg8
(lp380
g10
asg11
S'1-bromo-pentane'
p381
sg13
I8057
sg14
F0.2
sg15
F-0.1
sg16
(lp382
S'alkyl bromide'
p383
asg19
F1.5
sg20
g21
ssS'mobley_8427539'
p384
(dp385
g3
S'CCC(=O)N'
p386
sg5
g6
sg7
F0.1
sg8
(lp387
g10
asg11
S'propionamide'
p388
sg13
I6578
sg14
F0.2
sg15
F-9.4
sg16
(lp389
S'primary carboxylic acid amide'
p390
asg19
F-9.3
sg20
g21
ssS'mobley_1107178'
p391
(dp392
g3
S'CCI'
p393
sg25
g26
sg27
F0.02
sg8
(lp394
g29
asg30
S'iodoethane'
p395
sg13
I6340
sg14
F0.6
sg32
F-0.74
sg16
(lp396
S'alkyl iodide'
p397
asg37
F-0.1
sg38
g39
ssS'mobley_2789243'
p398
(dp399
g3
S'c1cc(cnc1)Cl'
p400
sg25
g26
sg27
F0.02
sg8
(lp401
g29
asg30
S'3-chloropyridine'
p402
sg13
I12287
sg14
F0.6
sg32
F-4.01
sg16
(lp403
S'aryl chloride'
p404
aS'aromatic'
p405
aS'heterocyclic'
p406
asg37
F-2.5
sg38
g39
ssS'mobley_2008055'
p407
(dp408
g3
S'CC'
p409
sg25
g26
sg27
F0.01
sg8
(lp410
g29
asg30
S'ethane'
p411
sg13
I6324
sg14
F0.6
sg32
F1.83
sg16
(lp412
S''
p413
asg37
F2.58
sg38
g39
ssS'mobley_1873346'
p414
(dp415
g3
S'Cc1ccccc1'
p416
sg5
g6
sg7
F0.1
sg8
(lp417
g10
asg11
S'toluene'
p418
sg13
I1140
sg14
F0.2
sg15
F-0.9
sg16
(lp419
S'aromatic'
p420
asg19
F-0.7
sg20
g21
ssS'mobley_7794077'
p421
(dp422
g3
S'c1c(c(=O)[nH]c(=O)[nH]1)C(F)(F)F'
p423
sS'expt_reference'
p424
S'10.1007/s10822-010-9350-8'
p425
sS'd_calc'
p426
F0.07
sg8
(lp427
g29
asS'iupac'
p428
S'5-trifluoromethyluracil'
p429
sg13
I5899
sS'd_expt'
p430
F0.16
sS'expt'
p431
F-15.46
sg16
(lp432
S'halogen derivative'
p433
aS'oxo(het)arene'
p434
aS'aromatic'
p435
aS'heterocyclic'
p436
asS'calc'
p437
F-17.17
sS'calc_reference'
p438
S'10.1007/s10822-010-9343-7'
p439
ssS'mobley_1849020'
p440
(dp441
g3
S'CCOP(=S)(OCC)SCSc1ccc(cc1)Cl'
p442
sg183
g184
sg185
F0.05
sg8
(lp443
g29
aS'Changed IUPAC name from carbophenothion to 4-chlorophenyl)sulfanylmethylsulfanyl-diethoxy-thioxo-$l^{5}-phosphane for better handling/standardization.'
p444
asg187
S'4-chlorophenyl)sulfanylmethylsulfanyl-diethoxy-thioxo-$l^{5}-phosphane'
p445
sg13
I13081
sg189
F0.83
sg190
F-6.5
sg16
(lp446
S'aryl chloride'
p447
aS'thiophosphoric acid ester'
p448
aS'aromatic'
p449
asg193
F-8.34
sg194
g195
ssS'mobley_8798016'
p450
(dp451
g3
S'c1cnccc1C=O'
p452
sg25
g26
sg27
F0.03
sg8
(lp453
g29
asg30
S'pyridine-4-carbaldehyde'
p454
sg13
I13389
sg14
F0.6
sg32
F-7.0
sg16
(lp455
S'aldehyde'
p456
aS'aromatic'
p457
aS'heterocyclic'
p458
asg37
F-7.31
sg38
g39
ssS'mobley_5157661'
p459
(dp460
g3
S'CC(C)C'
p461
sg5
g6
sg7
F0.1
sg8
(lp462
g10
asg11
S'isobutane'
p463
sg13
I6360
sg14
F0.2
sg15
F2.3
sg16
(lp464
S''
p465
asg19
F2.7
sg20
g21
ssS'mobley_6201330'
p466
(dp467
g3
S'CCCOC(=O)c1ccc(cc1)O'
p468
sg424
g425
sg426
F0.06
sg8
(lp469
g29
asg428
S'propyl paraben'
p470
sg13
I7175
sg430
F0.22
sg431
F-9.37
sg16
(lp471
S'phenol or hydroxyhetarene'
p472
aS'carboxylic acid ester'
p473
aS'aromatic'
p474
asg437
F-9.34
sg438
g439
ssS'mobley_4620651'
p475
(dp476
g3
S'COC(=O)C1CC1'
p477
sg25
g26
sg27
F0.04
sg8
(lp478
g29
asg30
S'methyl cyclopropanecarboxylate'
p479
sg13
I76122
sg14
F0.6
sg32
F-4.1
sg16
(lp480
S'carboxylic acid ester'
p481
asg37
F-4.49
sg38
g39
ssS'mobley_9717937'
p482
(dp483
g3
S'c1ccc(cc1)c2ccccc2Cl'
p484
sg215
g216
sg217
F0.03
sg8
(lp485
g29
asg219
S'1-chloro-2-phenyl-benzene'
p486
sg13
I249266
sg221
F0.1
sg222
F-2.69
sg16
(lp487
S'aryl chloride'
p488
aS'aromatic'
p489
asg225
F-2.42
sg226
g227
ssS'mobley_6861308'
p490
(dp491
g3
S'CN(C)C(=O)Nc1ccccc1'
p492
sg183
g184
sg185
F0.04
sg8
(lp493
g29
asg187
S'fenuron'
p494
sg13
I7560
sg189
F1.93
sg190
F-9.13
sg16
(lp495
S'urea'
p496
aS'aromatic'
p497
asg193
F-12.08
sg194
g195
ssS'mobley_4630641'
p498
(dp499
g3
S'COCCOC'
p500
sg25
g26
sg27
F0.02
sg8
(lp501
g29
asg30
S'1,2-dimethoxyethane'
p502
sg13
I8071
sg14
F0.6
sg32
F-4.84
sg16
(lp503
S'dialkyl ether'
p504
asg37
F-3.36
sg38
g39
ssS'mobley_2636578'
p505
(dp506
g3
S'C(CO[N+](=O)[O-])CO[N+](=O)[O-]'
p507
sg270
g271
sg272
F0.02
sg8
(lp508
g29
aS'IUPAC name and SMILES standardized in v0.2 to match PubChem.\n'
p509
asg274
S'3-nitrooxypropyl nitrate'
p510
sg13
I96257
sg276
g277
(g281
S'\xf6(\\\x8f\xc2\xf5\xd8?'
p511
tp512
Rp513
sg287
g277
(g281
S'333333\x13\xc0'
p514
tp515
Rp516
sg16
(lp517
S'anion'
p518
asg295
F-5.53
sg296
g297
ssS'mobley_5571660'
p519
(dp520
g3
S'Cc1cccc(c1N)C'
p521
sg25
g26
sg27
F0.03
sg8
(lp522
g29
asg30
S'2,6-dimethylaniline'
p523
sg13
I6896
sg14
F0.6
sg32
F-5.21
sg16
(lp524
S'primary amine'
p525
aS'primary aromatic amine'
p526
aS'aromatic'
p527
asg37
F-4.87
sg38
g39
ssS'mobley_7690440'
p528
(dp529
g3
S'CSSC'
p530
sg25
g26
sg27
F0.02
sg8
(lp531
g29
asg30
S'methyldisulfanylmethane'
p532
sg13
I12232
sg14
F0.6
sg32
F-1.83
sg16
(lp533
S'disulfide'
p534
asg37
F1.48
sg38
g39
ssS'mobley_2523689'
p535
(dp536
g3
S'c1ccc(cc1)n2c(=O)c(c(cn2)N)Cl'
p537
sg183
g184
sg185
F0.04
sg8
(lp538
g29
aS'Changed IUPAC name from pyrazon to 5-Amino-4-chloro-2-phenylpyridazin-3(2H)-one for better handling/standardization.'
p539
asg187
S'5-Amino-4-chloro-2-phenylpyridazin-3(2H)-one'
p540
sg13
I15546
sg189
F1.93
sg190
F-16.43
sg16
(lp541
S'primary amine'
p542
aS'primary aromatic amine'
p543
aS'aryl chloride'
p544
aS'oxo(het)arene'
p545
aS'aromatic'
p546
aS'heterocyclic'
p547
asg193
F-16.62
sg194
g195
ssS'mobley_8691603'
p548
(dp549
g3
S'Cc1cccc(c1)O'
p550
sg25
g26
sg27
F0.03
sg8
(lp551
g29
asg30
S'm-cresol'
p552
sg13
I342
sg14
F0.6
sg32
F-5.49
sg16
(lp553
S'phenol or hydroxyhetarene'
p554
aS'aromatic'
p555
asg37
F-5.28
sg38
g39
ssS'mobley_7176248'
p556
(dp557
g3
S'CCCN(CCC)c1c(cc(cc1[N+](=O)[O-])C(F)(F)F)[N+](=O)[O-]'
p558
sg183
g184
sg185
F0.04
sg8
(lp559
g29
aS'Changed IUPAC name from trifluralin to 2,6-Dinitro-N,N-dipropyl-4-(trifluoromethyl)aniline for better handling/standardization.'
p560
asg187
S'trifluralin'
p561
sg13
I5569
sg189
F0.1
sg190
F-3.25
sg16
(lp562
S'tertiary amine'
p563
aS'tertiary aliphatic/aromatic amine (alkylarylamine)'
p564
aS'halogen derivative'
p565
aS'nitro'
p566
aS'aromatic'
p567
asg193
F-2.58
sg194
g195
ssS'mobley_2295058'
p568
(dp569
g3
S'COC(=O)c1ccc(cc1)O'
p570
sg424
g425
sg426
F0.05
sg8
(lp571
g29
asg428
S'methyl paraben'
p572
sg13
I7456
sg430
F0.26
sg431
F-9.51
sg16
(lp573
S'phenol or hydroxyhetarene'
p574
aS'carboxylic acid ester'
p575
aS'aromatic'
p576
asg437
F-9.94
sg438
g439
ssS'mobley_819018'
p577
(dp578
g3
S'CC(=CCC/C(=C/CO)/C)C'
p579
sg270
g271
sg272
F0.021
sg8
(lp580
g29
aS'IUPAC name standardized in v0.2 to match PubChem.\n'
p581
asg274
S'(2E)-3,7-dimethylocta-2,6-dien-1-ol'
p582
sg13
I637566
sg276
g277
(g281
S'\xb8\x1e\x85\xebQ\xb8\xce?'
p583
tp584
Rp585
sg287
g277
(g281
S'\xcd\xcc\xcc\xcc\xcc\xcc\x11\xc0'
p586
tp587
Rp588
sg16
(lp589
S'primary alcohol'
p590
aS'alkene'
p591
asg295
F-2.54
sg296
g297
ssS'mobley_1976156'
p592
(dp593
g3
S'CCCCCCCCC=O'
p594
sg25
g26
sg27
F0.03
sg8
(lp595
g29
asg30
S'nonanal'
p596
sg13
I31289
sg14
F0.6
sg32
F-2.07
sg16
(lp597
S'aldehyde'
p598
asg37
F-2.51
sg38
g39
ssS'mobley_2197088'
p599
(dp600
g3
S'CCCCCCCCCC'
p601
sg25
g26
sg27
F0.03
sg8
(lp602
g29
asg30
S'decane'
p603
sg13
I15600
sg14
F0.6
sg32
F3.16
sg16
(lp604
S''
p605
asg37
F3.43
sg38
g39
ssS'mobley_627267'
p606
(dp607
g3
S'CC(C)CBr'
p608
sg25
g26
sg27
F0.02
sg8
(lp609
g29
asg30
S'1-bromo-2-methyl-propane'
p610
sg13
I6555
sg14
F0.6
sg32
F-0.03
sg16
(lp611
S'alkyl bromide'
p612
asg37
F1.24
sg38
g39
ssS'mobley_7415647'
p613
(dp614
g3
S'CN(C)C(=O)c1ccc(cc1)[N+](=O)[O-]'
p615
sg25
S'10.1139/v92-210'
p616
sg27
F0.04
sg8
(lp617
g29
asg30
S'N,N-dimethyl-4-nitro-benzamide'
p618
sg13
I138975
sg14
F0.6
sg32
F-11.95
sg16
(lp619
S'tertiary carboxylic acid amide'
p620
aS'nitro'
p621
aS'aromatic'
p622
asg37
F-9.92
sg38
g39
ssS'mobley_6812653'
p623
(dp624
g3
S'CCCCCC'
p625
sg25
g26
sg27
F0.02
sg8
(lp626
g29
asg30
S'hexane'
p627
sg13
I8058
sg14
F0.6
sg32
F2.48
sg16
(lp628
S''
p629
asg37
F3.05
sg38
g39
ssS'mobley_5052949'
p630
(dp631
g3
S'CCCSCCC'
p632
sg25
g26
sg27
F0.02
sg8
(lp633
g29
asg30
S'1-propylsulfanylpropane'
p634
sg13
I8118
sg14
F0.6
sg32
F-1.28
sg16
(lp635
S'thioether'
p636
asg37
F0.49
sg38
g39
ssS'mobley_3151666'
p637
(dp638
g3
S'CCCCCCCCCCO'
p639
sg25
g26
sg27
F0.03
sg8
(lp640
g29
asg30
S'decan-1-ol'
p641
sg13
I8174
sg14
F0.6
sg32
F-3.64
sg16
(lp642
S'primary alcohol'
p643
asg37
F-2.49
sg38
g39
ssS'mobley_1659169'
p644
(dp645
g3
S'C1COCCN1'
p646
sg25
g26
sg27
F0.02
sg8
(lp647
g29
asg30
S'morpholine'
p648
sg13
I8083
sg14
F0.6
sg32
F-7.17
sg16
(lp649
S'dialkyl ether'
p650
aS'secondary amine'
p651
aS'secondary aliphatic amine (dialkylamine)'
p652
aS'heterocyclic'
p653
asg37
F-6.28
sg38
g39
ssS'mobley_9534740'
p654
(dp655
g3
S'C([C@@H]1[C@H]([C@@H]([C@H]([C@@H](O1)O)O)O)O)O'
p656
sg424
g425
sg426
F0.09
sg8
(lp657
g29
aS'Changed IUPAC name from d-glucose to (2R,3R,4S,5S,6R)-6-(hydroxymethyl)tetrahydropyran-2,3,4,5-tetrol for better handling/standardization.'
p658
asg428
S'(2R,3R,4S,5S,6R)-6-(hydroxymethyl)tetrahydropyran-2,3,4,5-tetrol'
p659
sg13
I64689
sg430
F0.22
sg431
F-25.47
sg16
(lp660
S'hemiacetal'
p661
aS'primary alcohol'
p662
aS'secondary alcohol'
p663
aS'1,2-diol'
p664
aS'heterocyclic'
p665
asg437
F-17.01
sg438
g439
ssS'mobley_994483'
p666
(dp667
g3
S'CCBr'
p668
sg25
g26
sg27
F0.02
sg8
(lp669
g29
asg30
S'bromoethane'
p670
sg13
I6332
sg14
F0.6
sg32
F-0.74
sg16
(lp671
S'alkyl bromide'
p672
asg37
F0.93
sg38
g39
ssS'mobley_1189457'
p673
(dp674
g3
S'CSc1ccccc1'
p675
sg25
g26
sg27
F0.02
sg8
(lp676
g29
asg30
S'methylsulfanylbenzene'
p677
sg13
I7520
sg14
F0.6
sg32
F-2.73
sg16
(lp678
S'thioether'
p679
aS'aromatic'
p680
asg37
F-1.21
sg38
g39
ssS'mobley_8260524'
p681
(dp682
g3
S'CC#C'
p683
sg25
g26
sg27
F0.01
sg8
(lp684
g29
asg30
S'prop-1-yne'
p685
sg13
I6335
sg14
F0.6
sg32
F-0.48
sg16
(lp686
S'alkyne'
p687
asg37
F0.2
sg38
g39
ssS'mobley_646007'
p688
(dp689
g3
S'C1CCNC1'
p690
sg25
g26
sg27
F0.02
sg8
(lp691
g29
asg30
S'pyrrolidine'
p692
sg13
I31268
sg14
F0.6
sg32
F-5.48
sg16
(lp693
S'secondary amine'
p694
aS'secondary aliphatic amine (dialkylamine)'
p695
aS'heterocyclic'
p696
asg37
F-3.91
sg38
g39
ssS'mobley_8436428'
p697
(dp698
g3
S'CC(C)CC(C)C'
p699
sg25
g26
sg27
F0.03
sg8
(lp700
g29
asg30
S'2,4-dimethylpentane'
p701
sg13
I7907
sg14
F0.6
sg32
F2.83
sg16
(lp702
S''
p703
asg37
F2.89
sg38
g39
ssS'mobley_6804509'
p704
(dp705
g3
S'c1c(c(cc(c1Cl)Cl)Cl)Cl'
p706
sg25
g26
sg27
F0.02
sg8
(lp707
g29
asg30
S'1,2,4,5-tetrachlorobenzene'
p708
sg13
I7270
sg14
F0.6
sg32
F-1.34
sg16
(lp709
S'aryl chloride'
p710
aS'aromatic'
p711
asg37
F0.25
sg38
g39
ssS'mobley_6843802'
p712
(dp713
g3
S'c1ccc(cc1)O[C@@H](C(F)F)F'
p714
sg25
S'J. Lu, 1994, Ph.D. Thesis, University of Western Ontario'
p715
sg27
F0.02
sg8
(lp716
S'Renamed mobley_6843802 from 1,2,2-trifluoroethoxybenzene to [(1R)-1,2,2-trifluoroethoxy]benzene (the name from the 3D structure) since the former did not completely specify stereochemistry.\n'
p717
asg30
S'1,2,2-trifluoroethoxybenzene'
p718
sg13
I21269179
sg14
F0.6
sg32
F-1.29
sg16
(lp719
S'alkyl fluoride'
p720
aS'aromatic'
p721
asg37
F-2.93
sg38
g39
ssS'mobley_1922649'
p722
(dp723
g3
S'COP(=S)(OC)Oc1ccc(cc1)[N+](=O)[O-]'
p724
sg183
g184
sg185
F0.04
sg8
(lp725
g29
aS'Changed IUPAC name from methyparathion to methylparathion for better handling/standardization.'
p726
asg187
S'methylparathion'
p727
sg13
I4130
sg189
F0.1
sg190
F-7.19
sg16
(lp728
S'nitro'
p729
aS'thiophosphoric acid ester'
p730
aS'aromatic'
p731
asg193
F-9.87
sg194
g195
ssS'mobley_632905'
p732
(dp733
g3
S'CC(=O)c1ccc(cc1)OC'
p734
sg25
g26
sg27
F0.03
sg8
(lp735
g29
asg30
S'1-(4-methoxyphenyl)ethanone'
p736
sg13
I7476
sg14
F0.6
sg32
F-4.4
sg16
(lp737
S'ketone'
p738
aS'alkyl aryl ether'
p739
aS'aromatic'
p740
asg37
F-6.29
sg38
g39
ssS'mobley_4039055'
p741
(dp742
g3
S'c1c(c(=O)[nH]c(=O)[nH]1)Br'
p743
sg424
g425
sg426
F0.06
sg8
(lp744
g29
asg428
S'5-bromouracil'
p745
sg13
I5802
sg430
F0.55
sg431
F-18.17
sg16
(lp746
S'aryl bromide'
p747
aS'oxo(het)arene'
p748
aS'aromatic'
p749
aS'heterocyclic'
p750
asg437
F-16.61
sg438
g439
ssS'mobley_5346580'
p751
(dp752
g3
S'CC(=O)C(C)(C)C'
p753
sg25
g26
sg27
F0.02
sg8
(lp754
g29
asg30
S'3,3-dimethylbutan-2-one'
p755
sg13
I6416
sg14
F0.6
sg32
F-3.11
sg16
(lp756
S'ketone'
p757
asg37
F-2.91
sg38
g39
ssS'mobley_4683624'
p758
(dp759
g3
S'CCCc1ccc(cc1)O'
p760
sg25
S'10.1021/je00018a020 and Terres, E., Gebert, F., Hulsemann, H., Petereit, H., Toepsch, H., Ruppert, W., Brennstoff-Chemie 1955, 36, 272-274'
p761
sg27
F0.02
sg8
(lp762
g29
aS'Experimental value updated 10/22/13 as the average of -5.90 and -4.52, which are measured experimental values from Varhanickova, D., Shiu, W., Mackay, D., J. Chem. Eng. Data 1995, 40, 448-451 and Terres, E., Gebert, F., Hulsemann, H., Petereit, H., Toepsch, H., Ruppert, W., Brennstoff-Chemie 1955, 36, 272-274., respectively. The uncertainty was taken as the standard deviation across these two measurements.\n'
p763
asg30
S'4-propylphenol'
p764
sg13
I12580
sg14
F0.69
sg32
g277
(g281
S'\xd7\xa3p=\n\xd7\x14\xc0'
p765
tp766
Rp767
sg16
(lp768
S'phenol or hydroxyhetarene'
p769
aS'aromatic'
p770
asg37
F-5.5
sg38
g39
ssS'mobley_6619554'
p771
(dp772
g3
S'CCCCC(=O)OCC'
p773
sg25
g26
sg27
F0.03
sg8
(lp774
g29
asg30
S'ethyl pentanoate'
p775
sg13
I10882
sg14
F0.6
sg32
F-2.49
sg16
(lp776
S'carboxylic acid ester'
p777
asg37
F-3.09
sg38
g39
ssS'mobley_3034976'
p778
(dp779
g3
S'CC(=O)O'
p780
sg25
g26
sg27
F0.02
sg8
(lp781
g29
asg30
S'acetic acid'
p782
sg13
I176
sg14
F0.6
sg32
F-6.69
sg16
(lp783
S'carboxylic acid'
p784
asg37
F-5.95
sg38
g39
ssS'mobley_8426916'
p785
(dp786
g3
S'CCNCC'
p787
sg25
g26
sg27
F0.02
sg8
(lp788
g29
asg30
S'N-ethylethanamine'
p789
sg13
I8021
sg14
F0.6
sg32
F-4.07
sg16
(lp790
S'secondary amine'
p791
aS'secondary aliphatic amine (dialkylamine)'
p792
asg37
F-2.72
sg38
g39
ssS'mobley_550662'
p793
(dp794
g3
S'CC(OC)(OC)OC'
p795
sg25
S'10.1021/ja00802a021'
p796
sg27
F0.02
sg8
(lp797
g29
asg30
S'1,1,1-trimethoxyethane'
p798
sg13
I15050
sg14
F0.6
sg32
F-4.42
sg16
(lp799
S'orthocarboxylic acid derivative'
p800
aS'orthoester'
p801
asg37
F-3.89
sg38
g39
ssS'mobley_755351'
p802
(dp803
g3
S'COc1cccc(c1)N'
p804
sg25
g26
sg27
F0.03
sg8
(lp805
g29
asg30
S'3-methoxyaniline'
p806
sg13
I10824
sg14
F0.6
sg32
F-7.29
sg16
(lp807
S'alkyl aryl ether'
p808
aS'primary amine'
p809
aS'primary aromatic amine'
p810
aS'aromatic'
p811
asg37
F-7.45
sg38
g39
ssS'mobley_2751110'
p812
(dp813
g3
S'c1cc(ccc1[N+](=O)[O-])O'
p814
sg25
g26
sg27
F0.02
sg8
(lp815
g29
asg30
S'4-nitrophenol'
p816
sg13
I980
sg14
F0.6
sg32
F-10.64
sg16
(lp817
S'phenol or hydroxyhetarene'
p818
aS'nitro'
p819
aS'aromatic'
p820
asg37
F-8.22
sg38
g39
ssS'mobley_5977084'
p821
(dp822
g3
S'Cc1cccnc1'
p823
sg25
g26
sg27
F0.02
sg8
(lp824
g29
asg30
S'3-methylpyridine'
p825
sg13
I7970
sg14
F0.6
sg32
F-4.77
sg16
(lp826
S'aromatic'
p827
aS'heterocyclic'
p828
asg37
F-3.19
sg38
g39
ssS'mobley_2328633'
p829
(dp830
g3
S'CCCCCC1CCCC1'
p831
sg25
g26
sg27
F0.03
sg8
(lp832
g29
asg30
S'pentylcyclopentane'
p833
sg13
I19540
sg14
F0.6
sg32
F2.55
sg16
(lp834
S''
p835
asg37
F2.39
sg38
g39
ssS'mobley_5816127'
p836
(dp837
g3
S'COCCO'
p838
sg25
S'10.1007/BF00646936 and 10.1136/oem.45.8.561'
p839
sg27
F0.03
sg8
(lp840
g29
aS'Updated 10/22/13 using the mean of experimental data from two sources listed as experimental references.\n'
p841
asg30
S'2-methoxyethanol'
p842
sg13
I8019
sg14
F0.4
sg32
g277
(g281
S'z\x14\xaeG\xe1z\x1a\xc0'
p843
tp844
Rp845
sg16
(lp846
S'primary alcohol'
p847
aS'dialkyl ether'
p848
asg37
F-5.37
sg38
g39
ssS'mobley_6257907'
p849
(dp850
g3
S'c1cc(cc(c1)Cl)N'
p851
sg25
g26
sg27
F0.02
sg8
(lp852
g29
asg30
S'3-chloroaniline'
p853
sg13
I7932
sg14
F0.6
sg32
F-5.82
sg16
(lp854
S'primary amine'
p855
aS'primary aromatic amine'
p856
aS'aryl chloride'
p857
aS'aromatic'
p858
asg37
F-5.37
sg38
g39
ssS'mobley_1963873'
p859
(dp860
g3
S'CC(=O)NC'
p861
sg25
g26
sg27
F0.03
sg8
(lp862
g29
asg30
S'N-methylacetamide'
p863
sg13
I6582
sg14
F0.6
sg32
F-10.0
sg16
(lp864
S'secondary carboxylic acid amide'
p865
asg37
F-8.39
sg38
g39
ssS'mobley_7015518'
p866
(dp867
g3
S'COC'
p868
sg25
g26
sg27
F0.02
sg8
(lp869
g29
asg30
S'methoxymethane'
p870
sg13
I8254
sg14
F0.6
sg32
F-1.91
sg16
(lp871
S'dialkyl ether'
p872
asg37
F-0.85
sg38
g39
ssS'mobley_6195751'
p873
(dp874
g3
S'COc1c(c(c(c(c1Cl)C=O)Cl)OC)O'
p875
sg270
g271
sg272
F0.024
sg8
(lp876
g29
asg274
S'2,6-dichlorosyringaldehyde'
p877
sg13
I53476
sg276
g277
(g281
S'R\xb8\x1e\x85\xebQ\xe8?'
p878
tp879
Rp880
sg287
F-8.68
sg16
(lp881
S'aldehyde'
p882
aS'phenol or hydroxyhetarene'
p883
aS'alkyl aryl ether'
p884
aS'aryl chloride'
p885
aS'aromatic'
p886
asg295
F-9.94
sg296
g297
ssS'mobley_5390332'
p887
(dp888
g3
S'CCCC(=O)OC'
p889
sg25
g26
sg27
F0.02
sg8
(lp890
g29
asg30
S'methyl butanoate'
p891
sg13
I12180
sg14
F0.6
sg32
F-2.83
sg16
(lp892
S'carboxylic acid ester'
p893
asg37
F-3.32
sg38
g39
ssS'mobley_1017962'
p894
(dp895
g3
S'CCCCCC(=O)OC'
p896
sg25
g26
sg27
F0.03
sg8
(lp897
g29
asg30
S'methyl hexanoate'
p898
sg13
I7824
sg14
F0.6
sg32
F-2.49
sg16
(lp899
S'carboxylic acid ester'
p900
asg37
F-3.02
sg38
g39
ssS'mobley_5538249'
p901
(dp902
g3
S'c1ccc(cc1)c2c(cc(cc2Cl)Cl)Cl'
p903
sg215
g216
sg217
F0.03
sg8
(lp904
g29
asg219
S'1,3,5-trichloro-2-phenyl-benzene'
p905
sg13
I37247
sg221
F0.1
sg222
F-2.16
sg16
(lp906
S'aryl chloride'
p907
aS'aromatic'
p908
asg225
F-1.14
sg226
g227
ssS'mobley_9741965'
p909
(dp910
g3
S'C[C@@H](CCON([O-])[O-])ON([O-])[O-]'
p911
sg270
g271
sg272
F0.021
sg8
(lp912
g29
asg274
S'1,3-bis-(nitrooxy)butane'
p913
sg13
I138747
sg276
g277
(g281
S'\xf6(\\\x8f\xc2\xf5\xd8?'
p914
tp915
Rp916
sg287
g277
(g281
S')\\\x8f\xc2\xf5(\x11\xc0'
p917
tp918
Rp919
sg16
(lp920
S'anion'
p921
asg295
F-5.35
sg296
g297
ssS'mobley_5616693'
p922
(dp923
g3
S'C[C@@H]1CC[C@H](C(=O)C1)C(C)C'
p924
sg270
g271
sg272
F0.021
sg8
(lp925
g29
asg274
S'(2S,5R)-2-isopropyl-5-methylcyclohexanone'
p926
sg13
I26447
sg276
F0.25
sg287
F-2.53
sg16
(lp927
S'ketone'
p928
asg295
F-3.42
sg296
g297
ssS'mobley_9114381'
p929
(dp930
g3
S'COC(=O)CC#N'
p931
sg25
g43
sg27
F0.02
sg8
(lp932
g29
asg30
S'methyl 2-cyanoacetate'
p933
sg13
I7747
sg14
F0.6
sg32
F-6.72
sg16
(lp934
S'carboxylic acid ester'
p935
aS'carbonitrile'
p936
asg37
F-6.34
sg38
g39
ssS'mobley_9209581'
p937
(dp938
g3
S'CN(C)C'
p939
sg25
g26
sg27
F0.02
sg8
(lp940
g29
asg30
S'N,N-dimethylmethanamine'
p941
sg13
I1146
sg14
F0.6
sg32
F-3.2
sg16
(lp942
S'tertiary amine'
p943
aS'tertiary aliphatic amine (trialkylamine)'
p944
asg37
F-2.32
sg38
g39
ssS'mobley_1160109'
p945
(dp946
g3
S'C[C@@H]1CC[C@H](CC1=O)C(=C)C'
p947
sg270
g271
sg272
F0.021
sg8
(lp948
g29
asg274
S'(2R,5R)-2-methyl-5-(1-methylethenyl)-cyclohexanone'
p949
sg13
I22227
sg276
F0.21
sg287
F-3.75
sg16
(lp950
S'ketone'
p951
aS'alkene'
p952
asg295
F-3.31
sg296
g297
ssS'mobley_3515580'
p953
(dp954
g3
S'COc1ccccc1O'
p955
sg270
g271
sg272
F0.018
sg8
(lp956
g29
asg274
S'2-methoxyphenol'
p957
sg13
I460
sg276
g277
(g281
S'\x9a\x99\x99\x99\x99\x99\xb9?'
p958
tp959
Rp960
sg287
g277
(g281
S'\xc3\xf5(\\\x8f\xc2\x17\xc0'
p961
tp962
Rp963
sg16
(lp964
S'phenol or hydroxyhetarene'
p965
aS'alkyl aryl ether'
p966
aS'aromatic'
p967
asg295
F-4.62
sg296
g297
ssS'mobley_1571523'
p968
(dp969
g3
S'Cc1cccc(c1C)O'
p970
sg25
g26
sg27
F0.03
sg8
(lp971
g29
asg30
S'2,3-dimethylphenol'
p972
sg13
I10687
sg14
F0.6
sg32
F-6.16
sg16
(lp973
S'phenol or hydroxyhetarene'
p974
aS'aromatic'
p975
asg37
F-4.67
sg38
g39
ssS'mobley_2023925'
p976
(dp977
g3
S'[C@@H](C(F)(F)F)(OC(F)F)Cl'
p978
sg25
g26
sg27
F0.02
sg8
(lp979
S'Renamed mobley_2023925 from 2-chloro-2-(difluoromethoxy)-1,1,1-trifluoro-ethane to (2R)-2-chloro-2-(difluoromethoxy)-1,1,1-trifluoro-ethane (the name from the 3D structure) since the former did not completely specify stereochemistry.\n'
p980
asg30
S'2-chloro-2-(difluoromethoxy)-1,1,1-trifluoro-ethane'
p981
sg13
I11095291
sg14
F0.6
sg32
F0.1
sg16
(lp982
S'alkyl chloride'
p983
aS'orthocarboxylic acid derivative'
p984
asg37
F-1.38
sg38
g39
ssS'mobley_2771569'
p985
(dp986
g3
S'CN1CCNCC1'
p987
sg25
g26
sg27
F0.03
sg8
(lp988
g29
asg30
S'1-methylpiperazine'
p989
sg13
I53167
sg14
F0.6
sg32
F-7.77
sg16
(lp990
S'secondary amine'
p991
aS'secondary aliphatic amine (dialkylamine)'
p992
aS'tertiary amine'
p993
aS'tertiary aliphatic amine (trialkylamine)'
p994
aS'heterocyclic'
p995
asg37
F-8.3
sg38
g39
ssS'mobley_8785107'
p996
(dp997
g3
S'C[C@H]1CC[C@@H](O1)C'
p998
sg25
g26
sg27
F0.02
sg8
(lp999
S'Renamed mobley_8785107 from 2,5-dimethyltetrahydrofuran to (2S,5S)-2,5-dimethyltetrahydrofuran (the name from the 3D structure) since the former did not completely specify stereochemistry.\n'
p1000
asg30
S'2,5-dimethyltetrahydrofuran'
p1001
sg13
I13855
sg14
F0.6
sg32
F-2.92
sg16
(lp1002
S'dialkyl ether'
p1003
aS'heterocyclic'
p1004
asg37
F-1.89
sg38
g39
ssS'mobley_2881590'
p1005
(dp1006
g3
S'CC(C)CO[N+](=O)[O-]'
p1007
sg183
g184
sg185
F0.03
sg8
(lp1008
g29
asg187
S'isobutyl nitrate'
p1009
sg13
I10974
sg189
F0.1
sg190
F-1.88
sg16
(lp1010
S'nitrate'
p1011
asg193
F-1.72
sg194
g195
ssS'mobley_313406'
p1012
(dp1013
g3
S'CCCO'
p1014
sg25
g26
sg27
F0.02
sg8
(lp1015
g29
asg30
S'propan-1-ol'
p1016
sg13
I1031
sg14
F0.6
sg32
F-4.85
sg16
(lp1017
S'primary alcohol'
p1018
asg37
F-3.12
sg38
g39
ssS'mobley_3274817'
p1019
(dp1020
g3
S'CC[C@@H](C)c1cc(cc(c1O)[N+](=O)[O-])[N+](=O)[O-]'
p1021
sg183
g184
sg185
F0.04
sg8
(lp1022
g29
aS'Changed IUPAC name from dinoseb to 2-[(1R)-1-methylpropyl]-4,6-dinitro-phenolate for better handling/standardization.'
p1023
asg187
S'2-[(1R)-1-methylpropyl]-4,6-dinitro-phenolate'
p1024
sg13
I688400
sg189
F1.93
sg190
F-6.23
sg16
(lp1025
S'phenol or hydroxyhetarene'
p1026
aS'nitro'
p1027
aS'aromatic'
p1028
asg193
F-5.76
sg194
g195
ssS'mobley_9979854'
p1029
(dp1030
g3
S'C[C@H](C(F)(F)F)O'
p1031
sg5
g6
sg7
F0.1
sg8
(lp1032
S'Renamed mobley_9979854 from 1,1,1-trifluoropropan-2-ol to (2R)-1,1,1-trifluoropropan-2-ol (the name from the 3D structure) since the former did not completely specify stereochemistry.\n'
p1033
asg11
S'111-trifluoropropan-2-ol'
p1034
sg13
I6993809
sg14
F0.2
sg15
F-4.2
sg16
(lp1035
S'secondary alcohol'
p1036
aS'halogen derivative'
p1037
asg19
F-3.8
sg20
g21
ssS'mobley_2126135'
p1038
(dp1039
g3
S'CCc1ccccc1O'
p1040
sg270
g271
sg272
F0.019
sg8
(lp1041
g29
asg274
S'2-ethylphenol'
p1042
sg13
I6997
sg276
g277
(g281
S'\x9a\x99\x99\x99\x99\x99\xb9?'
p1043
tp1044
Rp1045
sg287
g277
(g281
S'\xa4p=\n\xd7\xa3\x16\xc0'
p1046
tp1047
Rp1048
sg16
(lp1049
S'phenol or hydroxyhetarene'
p1050
aS'aromatic'
p1051
asg295
F-4.7
sg296
g297
ssS'mobley_6743808'
p1052
(dp1053
g3
S'Cc1ccc(cc1C)O'
p1054
sg25
g26
sg27
F0.03
sg8
(lp1055
g29
asg30
S'3,4-dimethylphenol'
p1056
sg13
I7249
sg14
F0.6
sg32
F-6.5
sg16
(lp1057
S'phenol or hydroxyhetarene'
p1058
aS'aromatic'
p1059
asg37
F-5.33
sg38
g39
ssS'mobley_2493732'
p1060
(dp1061
g3
S'C=C(Cl)Cl'
p1062
sg25
g26
sg27
F0.02
sg8
(lp1063
g29
asg30
S'1,1-dichloroethylene'
p1064
sg13
I6366
sg14
F0.6
sg32
F0.25
sg16
(lp1065
S'ketene acetal or derivative'
p1066
aS'halogen derivative'
p1067
asg37
F1.24
sg38
g39
ssS'mobley_9407874'
p1068
(dp1069
g3
S'CCCCCCC(=O)C'
p1070
sg25
g26
sg27
F0.03
sg8
(lp1071
g29
asg30
S'octan-2-one'
p1072
sg13
I8093
sg14
F0.6
sg32
F-2.88
sg16
(lp1073
S'ketone'
p1074
asg37
F-2.3
sg38
g39
ssS'mobley_7142697'
p1075
(dp1076
g3
S'CCCCCN'
p1077
sg25
g26
sg27
F0.02
sg8
(lp1078
g29
asg30
S'pentan-1-amine'
p1079
sg13
I8060
sg14
F0.6
sg32
F-4.09
sg16
(lp1080
S'primary amine'
p1081
aS'primary aliphatic amine (alkylamine)'
p1082
asg37
F-2.99
sg38
g39
ssS'mobley_1896013'
p1083
(dp1084
g3
S'C1[C@H]([C@@H]([C@H]([C@H](O1)O)O)O)O'
p1085
sg424
g425
sg426
F0.1
sg8
(lp1086
g29
aS'Changed IUPAC name from d-xylose to (2S,3R,4S,5R)-oxane-2,3,4,5-tetrol for better handling/standardization.'
p1087
asg428
S'(2S,3R,4S,5R)-oxane-2,3,4,5-tetrol'
p1088
sg13
I6027
sg430
F0.27
sg431
F-20.52
sg16
(lp1089
S'hemiacetal'
p1090
aS'secondary alcohol'
p1091
aS'1,2-diol'
p1092
aS'heterocyclic'
p1093
asg437
F-13.7
sg438
g439
ssS'mobley_49274'
p1094
(dp1095
g3
S'CCCCCC#C'
p1096
sg25
g26
sg27
F0.02
sg8
(lp1097
g29
asg30
S'hept-1-yne'
p1098
sg13
I12350
sg14
F0.6
sg32
F0.6
sg16
(lp1099
S'alkyne'
p1100
asg37
F0.84
sg38
g39
ssS'mobley_4694328'
p1101
(dp1102
g3
S'CCCCCCCC=O'
p1103
sg25
g26
sg27
F0.03
sg8
(lp1104
g29
asg30
S'octanal'
p1105
sg13
I454
sg14
F0.6
sg32
F-2.29
sg16
(lp1106
S'aldehyde'
p1107
asg37
F-2.57
sg38
g39
ssS'mobley_7913234'
p1108
(dp1109
g3
S'CCCCOC[C@H](C)O'
p1110
sg270
g271
sg272
F0.023
sg8
(lp1111
S'Renamed mobley_7913234 from 1-butoxy-2-propanol to (2S)-1-butoxypropan-2-ol (the name from the 3D structure) since the former did not completely specify stereochemistry.\n'
p1112
asg274
S'1-butoxy-2-propanol'
p1113
sg13
I21210
sg276
g277
(g281
S'333333\xc3?'
p1114
tp1115
Rp1116
sg287
g277
(g281
S'\xecQ\xb8\x1e\x85\xeb\x16\xc0'
p1117
tp1118
Rp1119
sg16
(lp1120
S'secondary alcohol'
p1121
aS'dialkyl ether'
p1122
asg295
F-3.78
sg296
g297
ssS'mobley_1178614'
p1123
(dp1124
g3
S'c1ccc(c(c1)O)Cl'
p1125
sg25
g26
sg27
F0.03
sg8
(lp1126
g29
asg30
S'2-chlorophenol'
p1127
sg13
I7245
sg14
F0.6
sg32
F-4.55
sg16
(lp1128
S'phenol or hydroxyhetarene'
p1129
aS'aryl chloride'
p1130
aS'aromatic'
p1131
asg37
F-3.23
sg38
g39
ssS'mobley_951560'
p1132
(dp1133
g3
S'C1CNCCN1'
p1134
sg25
g26
sg27
F0.03
sg8
(lp1135
g29
asg30
S'piperazine'
p1136
sg13
I4837
sg14
F0.6
sg32
F-7.4
sg16
(lp1137
S'secondary amine'
p1138
aS'secondary aliphatic amine (dialkylamine)'
p1139
aS'heterocyclic'
p1140
asg37
F-8.34
sg38
g39
ssS'mobley_3211679'
p1141
(dp1142
g3
S'C1CCC=CC1'
p1143
sg270
g271
sg272
F0.017
sg8
(lp1144
g29
asg274
S'cyclohexene'
p1145
sg13
I8079
sg276
g277
(g281
S'\x9a\x99\x99\x99\x99\x99\xb9?'
p1146
tp1147
Rp1148
sg287
g277
(g281
S'\xecQ\xb8\x1e\x85\xeb\xc1?'
p1149
tp1150
Rp1151
sg16
(lp1152
S'alkene'
p1153
asg295
F1.14
sg296
g297
ssS'mobley_6359156'
p1154
(dp1155
g3
S'c1ccc(cc1)c2cc(ccc2Cl)Cl'
p1156
sg215
g216
sg217
F0.03
sg8
(lp1157
g29
asg219
S'1,4-dichloro-2-phenyl-benzene'
p1158
sg13
I36980
sg221
F0.1
sg222
F-2.46
sg16
(lp1159
S'aryl chloride'
p1160
aS'aromatic'
p1161
asg225
F-1.77
sg226
g227
ssS'mobley_3234716'
p1162
(dp1163
g3
S'Cc1ccc(cc1)C'
p1164
sg25
g26
sg27
F0.02
sg8
(lp1165
g29
asg30
S'p-xylene'
p1166
sg13
I7809
sg14
F0.6
sg32
F-0.8
sg16
(lp1167
S'aromatic'
p1168
asg37
F-0.67
sg38
g39
ssS'mobley_5286200'
p1169
(dp1170
g3
S'C(CCCl)CCl'
p1171
sg25
g26
sg27
F0.02
sg8
(lp1172
g29
asg30
S'1,4-dichlorobutane'
p1173
sg13
I8059
sg14
F0.6
sg32
F-2.32
sg16
(lp1174
S'alkyl chloride'
p1175
asg37
F-0.27
sg38
g39
ssS'mobley_7988076'
p1176
(dp1177
g3
S'c1cc(ccc1C=O)O'
p1178
sg25
g26
sg27
F0.03
sg8
(lp1179
g29
asg30
S'4-hydroxybenzaldehyde'
p1180
sg13
I126
sg14
F0.6
sg32
F-8.83
sg16
(lp1181
S'aldehyde'
p1182
aS'phenol or hydroxyhetarene'
p1183
aS'aromatic'
p1184
asg37
F-10.0
sg38
g39
ssS'mobley_6854178'
p1185
(dp1186
g3
S'CC(C)OC=O'
p1187
sg25
g26
sg27
F0.02
sg8
(lp1188
g29
asg30
S'isopropyl formate'
p1189
sg13
I12257
sg14
F0.6
sg32
F-2.02
sg16
(lp1190
S'carboxylic acid ester'
p1191
asg37
F-2.64
sg38
g39
ssS'mobley_9617923'
p1192
(dp1193
g3
S'CCCCCCCCC(=O)C'
p1194
sg25
g26
sg27
F0.03
sg8
(lp1195
g29
asg30
S'decan-2-one'
p1196
sg13
I12741
sg14
F0.6
sg32
F-2.34
sg16
(lp1197
S'ketone'
p1198
asg37
F-1.98
sg38
g39
ssS'mobley_2402487'
p1199
(dp1200
g3
S'CCOC(=O)CC(=O)OCC'
p1201
sg25
S'10.1139/v91-2'
p1202
sg27
F0.04
sg8
(lp1203
g29
asg30
S'diethyl propanedioate'
p1204
sg13
I7761
sg14
F0.6
sg32
F-6.0
sg16
(lp1205
S'carboxylic acid ester'
p1206
asg37
F-6.45
sg38
g39
ssS'mobley_1235151'
p1207
(dp1208
g3
S'CCCCC[N+](=O)[O-]'
p1209
sg25
g26
sg27
F0.02
sg8
(lp1210
g29
asg30
S'1-nitropentane'
p1211
sg13
I220639
sg14
F0.6
sg32
F-2.82
sg16
(lp1212
S'nitro'
p1213
asg37
F-1.29
sg38
g39
ssS'mobley_2689721'
p1214
(dp1215
g3
S'C1CCCCC1'
p1216
sg25
g26
sg27
F0.02
sg8
(lp1217
g29
asg30
S'cyclohexane'
p1218
sg13
I8078
sg14
F0.6
sg32
F1.23
sg16
(lp1219
S''
p1220
asg37
F1.67
sg38
g39
ssS'mobley_4613090'
p1221
(dp1222
g3
S'c1ccc(cc1)Cn2ccnc2'
p1223
sg270
g271
sg272
F0.022
sg8
(lp1224
g29
asg274
S'1-benzylimidazole'
p1225
sg13
I77918
sg276
g277
(g281
S'\xb8\x1e\x85\xebQ\xb8\xbe?'
p1226
tp1227
Rp1228
sg287
g277
(g281
S'\x85\xebQ\xb8\x1e\x85\x1e\xc0'
p1229
tp1230
Rp1231
sg16
(lp1232
S'aromatic'
p1233
aS'heterocyclic'
p1234
asg295
F-7.94
sg296
g297
ssS'mobley_1838110'
p1235
(dp1236
g3
S'C(C(F)(Cl)Cl)(F)(F)Cl'
p1237
sg25
g26
sg27
F0.02
sg8
(lp1238
g29
asg30
S'1,1,2-trichloro-1,2,2-trifluoro-ethane'
p1239
sg13
I6428
sg14
F0.6
sg32
F1.77
sg16
(lp1240
S'halogen derivative'
p1241
asg37
F1.53
sg38
g39
ssS'mobley_3083321'
p1242
(dp1243
g3
S'COCOC'
p1244
sS'expt_reference'
p1245
S'10.1021/jm070549+'
p1246
sS'd_calc'
p1247
F0.1
sS'notes'
p1248
(lp1249
S'Topology and coordinate files re-generated 10/9/13 from original .mol2 files.'
p1250
ag29
ag169
asS'iupac'
p1251
S'dimethoxymethane'
p1252
sg13
I8020
sg14
F0.2
sS'expt'
p1253
F-2.93
sg16
(lp1254
S'acetal'
p1255
asS'calc'
p1256
F-3.2
sS'calc_reference'
p1257
g1246
ssS'mobley_3572203'
p1258
(dp1259
g3
S'CCCCCOC(=O)CC'
p1260
sg25
g26
sg27
F0.03
sg8
(lp1261
g29
asg30
S'pentyl propanoate'
p1262
sg13
I12217
sg14
F0.6
sg32
F-2.11
sg16
(lp1263
S'carboxylic acid ester'
p1264
asg37
F-3.36
sg38
g39
ssS'mobley_3843583'
p1265
(dp1266
g3
S'c1ccc2c(c1)cccc2N'
p1267
sg25
g26
sg27
F0.03
sg8
(lp1268
g29
asg30
S'naphthalen-1-amine'
p1269
sg13
I8640
sg14
F0.6
sg32
F-7.28
sg16
(lp1270
S'primary amine'
p1271
aS'primary aromatic amine'
p1272
aS'aromatic'
p1273
asg37
F-7.76
sg38
g39
ssS'mobley_8127829'
p1274
(dp1275
g3
S'CCc1ccccc1'
p1276
sg25
g26
sg27
F0.02
sg8
(lp1277
g29
asg30
S'ethylbenzene'
p1278
sg13
I7500
sg14
F0.6
sg32
F-0.79
sg16
(lp1279
S'aromatic'
p1280
asg37
F-0.59
sg38
g39
ssS'mobley_7983227'
p1281
(dp1282
g3
S'CC[C@@H](C)CO'
p1283
sg25
g26
sg27
F0.02
sg8
(lp1284
S'Renamed mobley_7983227 from 2-methylbutan-1-ol to (2R)-2-methylbutan-1-ol (the name from the 3D structure) since the former did not completely specify stereochemistry.\n'
p1285
asg30
S'2-methylbutan-1-ol'
p1286
sg13
I8723
sg14
F0.6
sg32
F-4.42
sg16
(lp1287
S'primary alcohol'
p1288
asg37
F-2.78
sg38
g39
ssS'mobley_2390199'
p1289
(dp1290
g3
S'CCCC(=O)CCC'
p1291
sg25
g26
sg27
F0.02
sg8
(lp1292
g29
asg30
S'heptan-4-one'
p1293
sg13
I31246
sg14
F0.6
sg32
F-2.92
sg16
(lp1294
S'ketone'
p1295
asg37
F-2.68
sg38
g39
ssS'mobley_2960202'
p1296
(dp1297
g3
S'c1c2c(cc(c1Cl)Cl)Oc3c(c(c(c(c3Cl)Cl)Cl)Cl)O2'
p1298
sg215
g216
sg217
F0.03
sg8
(lp1299
g29
asg219
S'1,2,3,4,7,8-hexachlorodibenzo-p-dioxin'
p1300
sg13
I38251
sg221
F1.0
sg222
F-3.71
sg16
(lp1301
S'diaryl ether'
p1302
aS'aryl chloride'
p1303
aS'aromatic'
p1304
aS'heterocyclic'
p1305
asg225
F-1.9
sg226
g227
ssS'mobley_5326154'
p1306
(dp1307
g3
S'CN(C)c1ccccc1'
p1308
sg25
g26
sg27
F0.02
sg8
(lp1309
g29
asg30
S'N,N-dimethylaniline'
p1310
sg13
I949
sg14
F0.6
sg32
F-3.45
sg16
(lp1311
S'tertiary amine'
p1312
aS'tertiary aliphatic/aromatic amine (alkylarylamine)'
p1313
aS'aromatic'
p1314
asg37
F-4.7
sg38
g39
ssS'mobley_7176290'
p1315
(dp1316
g3
S'c1cc(cc(c1)O)[N+](=O)[O-]'
p1317
sg25
g26
sg27
F0.03
sg8
(lp1318
g29
asg30
S'3-nitrophenol'
p1319
sg13
I11137
sg14
F0.6
sg32
F-9.62
sg16
(lp1320
S'phenol or hydroxyhetarene'
p1321
aS'nitro'
p1322
aS'aromatic'
p1323
asg37
F-7.66
sg38
g39
ssS'mobley_6334915'
p1324
(dp1325
g3
S'COP(=O)([C@H](C(Cl)(Cl)Cl)O)OC'
p1326
sg183
g184
sg185
F0.04
sg8
(lp1327
g29
aS'Changed IUPAC name from trichlorfon to (1R)-2,2,2-trichloro-1-dimethoxyphosphoryl-ethanol for better handling/standardization.'
p1328
asg187
S'(1R)-2,2,2-trichloro-1-dimethoxyphosphoryl-ethanol'
p1329
sg13
I6604183
sg189
F1.93
sg190
F-12.74
sg16
(lp1330
S'halogen derivative'
p1331
aS'phosphonic acid derivative'
p1332
aS'phosphonic acid ester'
p1333
asg193
F-14.03
sg194
g195
ssS'mobley_6497672'
p1334
(dp1335
g3
S'C/C=C/C=O'
p1336
sg25
g26
sg27
F0.02
sg8
(lp1337
S'Renamed mobley_6497672 from but-2-enal to (E)-but-2-enal (the name from the 3D structure) since the former did not completely specify stereochemistry.\n'
p1338
asg30
S'but-2-enal'
p1339
sg13
I447466
sg14
F0.6
sg32
F-4.22
sg16
(lp1340
S'aldehyde'
p1341
aS'alkene'
p1342
asg37
F-3.66
sg38
g39
ssS'mobley_5665561'
p1343
(dp1344
g3
S'Cc1cc(c2ccccc2c1)C'
p1345
sg25
g26
sg27
F0.03
sg8
(lp1346
g29
asg30
S'1,3-dimethylnaphthalene'
p1347
sg13
I11327
sg14
F0.6
sg32
F-2.47
sg16
(lp1348
S'aromatic'
p1349
asg37
F-2.79
sg38
g39
ssS'mobley_4850657'
p1350
(dp1351
g3
S'CS(=O)(=O)Cl'
p1352
sg25
S'10.1139/v98-084'
p1353
sg27
F0.02
sg8
(lp1354
g29
asg30
S'methanesulfonyl chloride'
p1355
sg13
I31297
sg14
F0.6
sg32
F-4.87
sg16
(lp1356
S'sulfonyl halide'
p1357
asg37
F-6.33
sg38
g39
ssS'mobley_8809190'
p1358
(dp1359
g3
S'CCCCc1ccccc1'
p1360
sg25
g26
sg27
F0.02
sg8
(lp1361
g29
asg30
S'butylbenzene'
p1362
sg13
I7705
sg14
F0.6
sg32
F-0.4
sg16
(lp1363
S'aromatic'
p1364
asg37
F-0.3
sg38
g39
ssS'mobley_1743409'
p1365
(dp1366
g3
S'CCOC(=O)CCC(=O)OCC'
p1367
sg25
g1202
sg27
F0.04
sg8
(lp1368
g29
asg30
S'diethyl butanedioate'
p1369
sg13
I31249
sg14
F0.6
sg32
F-5.71
sg16
(lp1370
S'carboxylic acid ester'
p1371
asg37
F-8.47
sg38
g39
ssS'mobley_900088'
p1372
(dp1373
g3
S'CC(=C)C(=C)C'
p1374
sg25
g26
sg27
F0.02
sg8
(lp1375
g29
asg30
S'2,3-dimethylbuta-1,3-diene'
p1376
sg13
I10566
sg14
F0.6
sg32
F0.4
sg16
(lp1377
S'alkene'
p1378
asg37
F1.69
sg38
g39
ssS'mobley_5759258'
p1379
(dp1380
g3
S'CCCCCO'
p1381
sg25
g26
sg27
F0.02
sg8
(lp1382
g29
asg30
S'pentan-1-ol'
p1383
sg13
I6276
sg14
F0.6
sg32
F-4.57
sg16
(lp1384
S'primary alcohol'
p1385
asg37
F-3.14
sg38
g39
ssS'mobley_7608435'
p1386
(dp1387
g3
S'CCCCCCCC(=O)OC'
p1388
sg25
g26
sg27
F0.03
sg8
(lp1389
g29
asg30
S'methyl octanoate'
p1390
sg13
I8091
sg14
F0.6
sg32
F-2.04
sg16
(lp1391
S'carboxylic acid ester'
p1392
asg37
F-2.94
sg38
g39
ssS'mobley_3006808'
p1393
(dp1394
g3
S'C(C(F)(F)F)O'
p1395
sg25
S'10.1039/F19736901577'
p1396
sg27
F0.03
sg8
(lp1397
g29
asg30
S'2,2,2-trifluoroethanol'
p1398
sg13
I6409
sg14
F0.6
sg32
F-4.31
sg16
(lp1399
S'primary alcohol'
p1400
aS'halogen derivative'
p1401
asg37
F-3.95
sg38
g39
ssS'mobley_6303022'
p1402
(dp1403
g3
S'CCc1ccncc1'
p1404
sg25
g26
sg27
F0.02
sg8
(lp1405
g29
asg30
S'4-ethylpyridine'
p1406
sg13
I10822
sg14
F0.6
sg32
F-4.73
sg16
(lp1407
S'aromatic'
p1408
aS'heterocyclic'
p1409
asg37
F-2.87
sg38
g39
ssS'mobley_7047032'
p1410
(dp1411
g3
S'CC(C)(C)Cl'
p1412
sg25
g26
sg27
F0.02
sg8
(lp1413
g29
asg30
S'2-chloro-2-methyl-propane'
p1414
sg13
I10486
sg14
F0.6
sg32
F1.09
sg16
(lp1415
S'alkyl chloride'
p1416
asg37
F0.82
sg38
g39
ssS'mobley_1708457'
p1417
(dp1418
g3
S'CS(=O)(=O)C'
p1419
sg25
S'J. Peter Guthrie, unpublished data, as provided to D. Mobley 2007/2008, and as cited in 10.1021/jp0764384'
p1420
sg27
F0.03
sg8
(lp1421
g29
asg30
S'methylsulfonylmethane'
p1422
sg13
I6213
sg14
F0.6
sg32
F-10.08
sg16
(lp1423
S'sulfone'
p1424
asg37
F-10.36
sg38
g39
ssS'mobley_1079207'
p1425
(dp1426
g3
S'c1cc(cc(c1)Cl)Cl'
p1427
sg25
g26
sg27
F0.02
sg8
(lp1428
g29
asg30
S'1,3-dichlorobenzene'
p1429
sg13
I10943
sg14
F0.6
sg32
F-0.98
sg16
(lp1430
S'aryl chloride'
p1431
aS'aromatic'
p1432
asg37
F0.01
sg38
g39
ssS'mobley_486214'
p1433
(dp1434
g3
S'COc1cccc(c1O)OC'
p1435
sg270
g271
sg272
F0.022
sg8
(lp1436
g29
asg274
S'2,6-dimethoxyphenol'
p1437
sg13
I7041
sg276
g277
(g281
S'\x9a\x99\x99\x99\x99\x99\xb9?'
p1438
tp1439
Rp1440
sg287
g277
(g281
S'\xd7\xa3p=\n\xd7\x1b\xc0'
p1441
tp1442
Rp1443
sg16
(lp1444
S'phenol or hydroxyhetarene'
p1445
aS'alkyl aryl ether'
p1446
aS'aromatic'
p1447
asg295
F-7.05
sg296
g297
ssS'mobley_8573194'
p1448
(dp1449
g3
S'CCCC=O'
p1450
sg25
g26
sg27
F0.02
sg8
(lp1451
g29
asg30
S'butanal'
p1452
sg13
I261
sg14
F0.6
sg32
F-3.18
sg16
(lp1453
S'aldehyde'
p1454
asg37
F-3.01
sg38
g39
ssS'mobley_7375018'
p1455
(dp1456
g3
S'CCCCCCCCCC(=O)C'
p1457
sg25
g26
sg27
F0.03
sg8
(lp1458
g29
asg30
S'undecan-2-one'
p1459
sg13
I8163
sg14
F0.6
sg32
F-2.15
sg16
(lp1460
S'ketone'
p1461
asg37
F-2.12
sg38
g39
ssS'mobley_4792268'
p1462
(dp1463
g3
S'CCCCC(=O)O'
p1464
sg25
g26
sg27
F0.06
sg8
(lp1465
g29
asg30
S'pentanoic acid'
p1466
sg13
I7991
sg14
F0.6
sg32
F-6.16
sg16
(lp1467
S'carboxylic acid'
p1468
asg37
F-5.37
sg38
g39
ssS'mobley_1520842'
p1469
(dp1470
g3
S'Cc1ccncc1'
p1471
sg25
g26
sg27
F0.02
sg8
(lp1472
g29
asg30
S'4-methylpyridine'
p1473
sg13
I7963
sg14
F0.6
sg32
F-4.93
sg16
(lp1474
S'aromatic'
p1475
aS'heterocyclic'
p1476
asg37
F-3.41
sg38
g39
ssS'mobley_5520946'
p1477
(dp1478
g3
S'c1ccc(cc1)S'
p1479
sg25
g26
sg27
F0.02
sg8
(lp1480
g29
asg30
S'benzenethiol'
p1481
sg13
I7969
sg14
F0.6
sg32
F-2.55
sg16
(lp1482
S'thiol (sulfanyl)'
p1483
aS'arylthiol (thiophenol)'
p1484
aS'aromatic'
p1485
asg37
F-1.43
sg38
g39
ssS'mobley_2005792'
p1486
(dp1487
g3
S'c1ccc(cc1)c2ccccc2'
p1488
sg5
g6
sg7
F0.1
sg8
(lp1489
g10
aS'Changed IUPAC name from biphenyle to biphenyl for better handling/standardization.'
p1490
asg11
S'biphenyle'
p1491
sg13
I7095
sg14
F0.2
sg15
F-2.7
sg16
(lp1492
S'aromatic'
p1493
asg19
F-3.5
sg20
g21
ssS'mobley_7688753'
p1494
(dp1495
g3
S'c1cc(cc(c1)O)C=O'
p1496
sg25
g26
sg27
F0.03
sg8
(lp1497
g29
aS"Experimental value updated 10/22/13 from J. Peter Guthrie's examination of published data. A range of values -7.48 to -9.52 seem possible, but the original experimental data has not yet been located. More work is needed.\n"
p1498
asg30
S'3-hydroxybenzaldehyde'
p1499
sg13
I101
sg14
F1.9
sg32
F-9.52
sg16
(lp1500
S'aldehyde'
p1501
aS'phenol or hydroxyhetarene'
p1502
aS'aromatic'
p1503
asg37
F-9.24
sg38
g39
ssS'mobley_7860938'
p1504
(dp1505
g3
S'CCCCNCCCC'
p1506
sg25
g26
sg27
F0.03
sg8
(lp1507
g29
asg30
S'N-butylbutan-1-amine'
p1508
sg13
I8148
sg14
F0.6
sg32
F-3.24
sg16
(lp1509
S'secondary amine'
p1510
aS'secondary aliphatic amine (dialkylamine)'
p1511
asg37
F-1.63
sg38
g39
ssS'mobley_4780078'
p1512
(dp1513
g3
S'Cc1ccc(c(c1)C)O'
p1514
sg25
g26
sg27
F0.03
sg8
(lp1515
g29
asg30
S'2,4-dimethylphenol'
p1516
sg13
I7771
sg14
F0.6
sg32
F-6.01
sg16
(lp1517
S'phenol or hydroxyhetarene'
p1518
aS'aromatic'
p1519
asg37
F-4.55
sg38
g39
ssS'mobley_3709920'
p1520
(dp1521
g3
S'CCCCCCCC=C'
p1522
sg25
g26
sg27
F0.03
sg8
(lp1523
g29
asg30
S'non-1-ene'
p1524
sg13
I31285
sg14
F0.6
sg32
F2.06
sg16
(lp1525
S'alkene'
p1526
asg37
F2.91
sg38
g39
ssS'mobley_7542832'
p1527
(dp1528
g3
S'CCCOCCC'
p1529
sg25
g26
sg27
F0.02
sg8
(lp1530
g29
asg30
S'1-propoxypropane'
p1531
sg13
I8114
sg14
F0.6
sg32
F-1.16
sg16
(lp1532
S'dialkyl ether'
p1533
asg37
F0.21
sg38
g39
ssS'mobley_2492140'
p1534
(dp1535
g3
S'C(C(Cl)(Cl)Cl)(Cl)Cl'
p1536
sg215
g216
sg217
F0.02
sg8
(lp1537
g29
asg219
S'1,1,1,2,2-pentachloroethane'
p1538
sg13
I6419
sg221
F0.1
sg222
F-1.23
sg16
(lp1539
S'alkyl chloride'
p1540
asg225
F0.13
sg226
g227
ssS'mobley_8899867'
p1541
(dp1542
g3
S'C1CCC(C1)O'
p1543
sg25
g26
sg27
F0.02
sg8
(lp1544
g29
asg30
S'cyclopentanol'
p1545
sg13
I7298
sg14
F0.6
sg32
F-5.49
sg16
(lp1546
S'secondary alcohol'
p1547
asg37
F-4.15
sg38
g39
ssS'mobley_5371840'
p1548
(dp1549
g3
S'c1ccc2c(c1)Oc3ccc(cc3O2)Cl'
p1550
sg215
g216
sg217
F0.02
sg8
(lp1551
g29
asg219
S'2-chlorodibenzo-p-dioxin'
p1552
sg13
I38252
sg221
F0.1
sg222
F-3.1
sg16
(lp1553
S'diaryl ether'
p1554
aS'aryl chloride'
p1555
aS'aromatic'
p1556
aS'heterocyclic'
p1557
asg225
F-3.99
sg226
g227
ssS'mobley_2929847'
p1558
(dp1559
g3
S'CC(C)CC(=O)O'
p1560
sg25
g26
sg27
F0.03
sg8
(lp1561
g29
asg30
S'3-methylbutanoic acid'
p1562
sg13
I10430
sg14
F0.6
sg32
F-6.09
sg16
(lp1563
S'carboxylic acid'
p1564
asg37
F-5.51
sg38
g39
ssS'mobley_8006582'
p1565
(dp1566
g3
S'C1CCCC1'
p1567
sg25
g26
sg27
F0.02
sg8
(lp1568
g29
asg30
S'cyclopentane'
p1569
sg13
I9253
sg14
F0.6
sg32
F1.2
sg16
(lp1570
S''
p1571
asg37
F1.53
sg38
g39
ssS'mobley_2146331'
p1572
(dp1573
g3
S'C=O'
p1574
sg25
g26
sg27
F0.01
sg8
(lp1575
g29
aS'Formaldehyde is covalently hydrated in water. Our value here is the true free energy of hydration (based on the concentration of formaldehyde in gas vs in water) as opposed to the apparent one. See Guthrie, J. P., J. Am. Chem. Soc. 2000, 122, 5529-5538.\n'
p1576
asg30
S'formaldehyde'
p1577
sg13
I712
sg14
F0.6
sg32
F-2.75
sg16
(lp1578
S'aldehyde'
p1579
asg37
F-3.22
sg38
g39
ssS'mobley_2099370'
p1580
(dp1581
g3
S'C[C@@H](c1cccc(c1)C(=O)c2ccccc2)C(=O)O'
p1582
sg424
g425
sg426
F0.1
sg8
(lp1583
S'Renamed mobley_2099370 from ketoprofen to (2S)-2-(3-benzoylphenyl)propanoic acid (the name from the 3D structure) since the former did not completely specify stereochemistry.\n'
p1584
asg428
S'ketoprofen'
p1585
sg13
I3825
sg430
F0.18
sg431
F-10.78
sg16
(lp1586
S'ketone'
p1587
aS'carboxylic acid'
p1588
aS'aromatic'
p1589
asg437
F-11.9
sg438
g439
ssS'mobley_1781152'
p1590
(dp1591
g3
S'CC(C)(C)C(=O)OC'
p1592
sg25
g26
sg27
F0.02
sg8
(lp1593
g29
asg30
S'methyl 2,2-dimethylpropanoate'
p1594
sg13
I69027
sg14
F0.6
sg32
F-2.4
sg16
(lp1595
S'carboxylic acid ester'
p1596
asg37
F-2.99
sg38
g39
ssS'mobley_3968043'
p1597
(dp1598
g3
S'C1CCC(=O)C1'
p1599
sg25
g26
sg27
F0.02
sg8
(lp1600
g29
asg30
S'cyclopentanone'
p1601
sg13
I8452
sg14
F0.6
sg32
F-4.7
sg16
(lp1602
S'ketone'
p1603
asg37
F-3.71
sg38
g39
ssS'mobley_3323117'
p1604
(dp1605
g3
S'C1CC[S+2](C1)([O-])[O-]'
p1606
sg424
g425
sg426
F0.05
sg8
(lp1607
g29
asg428
S'sulfolane'
p1608
sg13
I31347
sg430
F0.31
sg431
F-8.61
sg16
(lp1609
S'cation'
p1610
aS'heterocyclic'
p1611
asg437
F-9.45
sg438
g439
ssS'mobley_4043951'
p1612
(dp1613
g3
S'CCCC=C'
p1614
sg25
g26
sg27
F0.02
sg8
(lp1615
g29
asg30
S'pent-1-ene'
p1616
sg13
I8004
sg14
F0.6
sg32
F1.68
sg16
(lp1617
S'alkene'
p1618
asg37
F2.44
sg38
g39
ssS'mobley_8705848'
p1619
(dp1620
g3
S'CC(C)NC(C)C'
p1621
sg25
g26
sg27
F0.02
sg8
(lp1622
g29
asg30
S'N-isopropylpropan-2-amine'
p1623
sg13
I7912
sg14
F0.6
sg32
F-3.22
sg16
(lp1624
S'secondary amine'
p1625
aS'secondary aliphatic amine (dialkylamine)'
p1626
asg37
F-1.97
sg38
g39
ssS'mobley_2484519'
p1627
(dp1628
g3
S'c1ccc(cc1)CCl'
p1629
sg1245
g1246
sg1247
F0.08
sg1248
(lp1630
g1250
ag29
ag169
asg1251
S'benzyl chloride'
p1631
sg13
I7503
sg14
F0.2
sg1253
F-1.93
sg16
(lp1632
S'alkyl chloride'
p1633
aS'aromatic'
p1634
asg1256
F-1.5
sg1257
g1246
ssS'mobley_547634'
p1635
(dp1636
g3
S'Cc1cc2ccccc2cc1C'
p1637
sg25
g26
sg27
F0.02
sg8
(lp1638
g29
asg30
S'2,3-dimethylnaphthalene'
p1639
sg13
I11386
sg14
F0.6
sg32
F-2.78
sg16
(lp1640
S'aromatic'
p1641
asg37
F-2.59
sg38
g39
ssS'mobley_8311321'
p1642
(dp1643
g3
S'C(F)(F)Cl'
p1644
sg25
g26
sg27
F0.02
sg8
(lp1645
g29
asg30
S'chloro-difluoro-methane'
p1646
sg13
I6372
sg14
F0.6
sg32
F-0.5
sg16
(lp1647
S'halogen derivative'
p1648
asg37
F-0.04
sg38
g39
ssS'mobley_3318135'
p1649
(dp1650
g3
S'CCCCC(=O)CCCC'
p1651
sg25
g26
sg27
F0.03
sg8
(lp1652
g29
asg30
S'nonan-5-one'
p1653
sg13
I10405
sg14
F0.6
sg32
F-2.64
sg16
(lp1654
S'ketone'
p1655
asg37
F-2.34
sg38
g39
ssS'mobley_3761215'
p1656
(dp1657
g3
S'CC(Cl)(Cl)Cl'
p1658
sg25
g26
sg27
F0.02
sg8
(lp1659
g29
asg30
S'1,1,1-trichloroethane'
p1660
sg13
I6278
sg14
F0.6
sg32
F-0.19
sg16
(lp1661
S'halogen derivative'
p1662
asg37
F0.75
sg38
g39
ssS'mobley_3047364'
p1663
(dp1664
g3
S'CCNc1nc(nc(n1)SC)NC(C)C'
p1665
sg183
g184
sg185
F0.04
sg8
(lp1666
g29
aS'Changed IUPAC name from ametryn to 2-N-ethyl-6-(methylsulfanyl)-4-N-(propan-2-yl)-1,3,5-triazine-2,4-diamine for better handling/standardization.'
p1667
asg187
S'2-N-ethyl-6-(methylsulfanyl)-4-N-(propan-2-yl)-1,3,5-triazine-2,4-diamine'
p1668
sg13
I13263
sg189
F0.45
sg190
F-7.65
sg16
(lp1669
S'thioether'
p1670
aS'secondary amine'
p1671
aS'secondary aliphatic/aromatic amine (alkylarylamine)'
p1672
aS'aromatic'
p1673
aS'heterocyclic'
p1674
asg193
F-9.24
sg194
g195
ssS'mobley_3183805'
p1675
(dp1676
g3
S'Cc1ccc(c(c1)C)C'
p1677
sg25
g26
sg27
F0.02
sg8
(lp1678
g29
asg30
S'1,2,4-trimethylbenzene'
p1679
sg13
I7247
sg14
F0.6
sg32
F-0.86
sg16
(lp1680
S'aromatic'
p1681
asg37
F-0.36
sg38
g39
ssS'mobley_1717215'
p1682
(dp1683
g3
S'COC=O'
p1684
sg25
g26
sg27
F0.02
sg8
(lp1685
g29
asg30
S'methyl formate'
p1686
sg13
I7865
sg14
F0.6
sg32
F-2.78
sg16
(lp1687
S'carboxylic acid ester'
p1688
asg37
F-3.17
sg38
g39
ssS'mobley_5600967'
p1689
(dp1690
g3
S'CN(C)C(=O)c1ccc(cc1)OC'
p1691
sg25
g616
sg27
F0.04
sg8
(lp1692
g29
asg30
S'4-methoxy-N,N-dimethyl-benzamide'
p1693
sg13
I81713
sg14
F0.6
sg32
F-11.01
sg16
(lp1694
S'alkyl aryl ether'
p1695
aS'tertiary carboxylic acid amide'
p1696
aS'aromatic'
p1697
asg37
F-9.29
sg38
g39
ssS'mobley_6794076'
p1698
(dp1699
g3
S'CC(=O)c1ccncc1'
p1700
sg25
g26
sg27
F0.03
sg8
(lp1701
g29
asg30
S'1-(4-pyridyl)ethanone'
p1702
sg13
I14282
sg14
F0.6
sg32
F-7.62
sg16
(lp1703
S'ketone'
p1704
aS'aromatic'
p1705
aS'heterocyclic'
p1706
asg37
F-7.63
sg38
g39
ssS'mobley_6055410'
p1707
(dp1708
g3
S'c1cc(c(cc1c2ccc(cc2F)F)C(=O)O)O'
p1709
sg424
g425
sg426
F0.1
sg8
(lp1710
g29
asg428
S'diflunisal'
p1711
sg13
I3059
sg430
F0.2
sg431
F-9.4
sg16
(lp1712
S'phenol or hydroxyhetarene'
p1713
aS'aryl fluoride'
p1714
aS'carboxylic acid'
p1715
aS'aromatic'
p1716
asg437
F-6.5
sg438
g439
ssS'mobley_7393673'
p1717
(dp1718
g3
S'COc1ccc(cc1)C(=O)OC'
p1719
sg25
g616
sg27
F0.03
sg8
(lp1720
g29
asg30
S'methyl 4-methoxybenzoate'
p1721
sg13
I8499
sg14
F0.6
sg32
F-5.33
sg16
(lp1722
S'alkyl aryl ether'
p1723
aS'carboxylic acid ester'
p1724
aS'aromatic'
p1725
asg37
F-6.32
sg38
g39
ssS'mobley_7676709'
p1726
(dp1727
g3
S'CC1=CC(=O)[C@@H](CC1)C(C)C'
p1728
sg270
g271
sg272
F0.022
sg8
(lp1729
S'Renamed mobley_7676709 from 6-isopropyl-3-methyl-1-cyclohex-2-enone to (6S)-6-isopropyl-3-methyl-cyclohex-2-en-1-one (the name from the 3D structure) since the former did not completely specify stereochemistry.\n'
p1730
asg274
S'6-isopropyl-3-methyl-1-cyclohex-2-enone'
p1731
sg13
I61362
sg276
F0.1
sg287
F-4.51
sg16
(lp1732
S'ketone'
p1733
aS'alkene'
p1734
asg295
F-3.81
sg296
g297
ssS'mobley_2845466'
p1735
(dp1736
g3
S'c1c2c(cc(c1Cl)Cl)Oc3cc(c(cc3O2)Cl)Cl'
p1737
sg215
g216
sg217
F0.03
sg8
(lp1738
g29
asg219
S'2,3,7,8-tetrachlorodibenzo-p-dioxin'
p1739
sg13
I15625
sg221
F1.0
sg222
F-3.37
sg16
(lp1740
S'diaryl ether'
p1741
aS'aryl chloride'
p1742
aS'aromatic'
p1743
aS'heterocyclic'
p1744
asg225
F-2.49
sg226
g227
ssS'mobley_9197172'
p1745
(dp1746
g3
S'CCCCCCC=C'
p1747
sg25
g26
sg27
F0.03
sg8
(lp1748
g29
asg30
S'oct-1-ene'
p1749
sg13
I8125
sg14
F0.6
sg32
F1.92
sg16
(lp1750
S'alkene'
p1751
asg37
F2.77
sg38
g39
ssS'mobley_9055303'
p1752
(dp1753
g3
S'C'
p1754
sg5
g6
sg7
F0.1
sg8
(lp1755
g10
asg11
S'methane'
p1756
sg13
I297
sg14
F0.2
sg15
F2.0
sg16
(lp1757
S''
p1758
asg19
F2.6
sg20
g21
ssS'mobley_6935906'
p1759
(dp1760
g3
S'CC(=CCC[C@](C)(C=C)OC(=O)C)C'
p1761
sg270
g271
sg272
F0.024
sg8
(lp1762
g29
asg274
S'(3R)-3,7-Dimethylocta-1,6-dien-3-yl acetate'
p1763
sg13
I442474
sg276
g277
(g281
S'333333\xeb?'
p1764
tp1765
Rp1766
sg287
g277
(g281
S'\xecQ\xb8\x1e\x85\xeb\x03\xc0'
p1767
tp1768
Rp1769
sg16
(lp1770
S'carboxylic acid ester'
p1771
aS'alkene'
p1772
asg295
F-2.58
sg296
g297
ssS'mobley_7239499'
p1773
(dp1774
g3
S'c1ccc2c(c1)Oc3cccc(c3O2)Cl'
p1775
sg215
g216
sg217
F0.02
sg8
(lp1776
g29
asg219
S'1-chlorodibenzo-p-dioxin'
p1777
sg13
I37207
sg221
F0.1
sg222
F-3.52
sg16
(lp1778
S'diaryl ether'
p1779
aS'aryl chloride'
p1780
aS'aromatic'
p1781
aS'heterocyclic'
p1782
asg225
F-4.38
sg226
g227
ssS'mobley_4193752'
p1783
(dp1784
g3
S'c1ccc(cc1)[N+](=O)[O-]'
p1785
sg25
g26
sg27
F0.02
sg8
(lp1786
g29
asg30
S'nitrobenzene'
p1787
sg13
I7416
sg14
F0.6
sg32
F-4.12
sg16
(lp1788
S'nitro'
p1789
aS'aromatic'
p1790
asg37
F-3.4
sg38
g39
ssS'mobley_2844990'
p1791
(dp1792
g3
S'c1cc2c(cc1Cl)Oc3cc(c(c(c3O2)Cl)Cl)Cl'
p1793
sg215
g216
sg217
F0.03
sg8
(lp1794
g29
asg219
S'1,2,3,7-tetrachlorodibenzo-p-dioxin'
p1795
sg13
I48889
sg221
F1.0
sg222
F-3.84
sg16
(lp1796
S'diaryl ether'
p1797
aS'aryl chloride'
p1798
aS'aromatic'
p1799
aS'heterocyclic'
p1800
asg225
F-2.58
sg226
g227
ssS'mobley_2925352'
p1801
(dp1802
g3
S'Cc1ccc(cc1)O'
p1803
sg25
g26
sg27
F0.02
sg8
(lp1804
g29
asg30
S'p-cresol'
p1805
sg13
I2879
sg14
F0.6
sg32
F-6.13
sg16
(lp1806
S'phenol or hydroxyhetarene'
p1807
aS'aromatic'
p1808
asg37
F-5.36
sg38
g39
ssS'mobley_4934872'
p1809
(dp1810
g3
S'CCOC(OCC)Oc1ccccc1'
p1811
sg25
g1420
sg27
F0.04
sg8
(lp1812
g29
asg30
S'diethoxymethoxybenzene'
p1813
sg13
I84440
sg14
F0.6
sg32
F-5.23
sg16
(lp1814
S'orthocarboxylic acid derivative'
p1815
aS'orthoester'
p1816
aS'aromatic'
p1817
asg37
F-4.44
sg38
g39
ssS'mobley_1923244'
p1818
(dp1819
g3
S'CCCC'
p1820
sg5
g6
sg7
F0.1
sg8
(lp1821
g10
asg11
S'n-butane'
p1822
sg13
I7843
sg14
F0.2
sg15
F2.1
sg16
(lp1823
S''
p1824
asg19
F3.1
sg20
g21
ssS'mobley_3690931'
p1825
(dp1826
g3
S'CCCC(=O)OCCC'
p1827
sg25
g26
sg27
F0.03
sg8
(lp1828
g29
asg30
S'propyl butanoate'
p1829
sg13
I7770
sg14
F0.6
sg32
F-2.28
sg16
(lp1830
S'carboxylic acid ester'
p1831
asg37
F-2.88
sg38
g39
ssS'mobley_6359135'
p1832
(dp1833
g3
S'C(Cl)(Cl)(Cl)Cl'
p1834
sg25
g26
sg27
F0.02
sg8
(lp1835
g29
asg30
S'carbon tetrachloride'
p1836
sg13
I5943
sg14
F0.6
sg32
F0.08
sg16
(lp1837
S'halogen derivative'
p1838
asg37
F1.41
sg38
g39
ssS'mobley_1857976'
p1839
(dp1840
g3
S'C(CCl)Cl'
p1841
sg25
g26
sg27
F0.02
sg8
(lp1842
g29
asg30
S'1,2-dichloroethane'
p1843
sg13
I11
sg14
F0.6
sg32
F-1.79
sg16
(lp1844
S'alkyl chloride'
p1845
asg37
F-0.52
sg38
g39
ssS'mobley_2068538'
p1846
(dp1847
g3
S'CCC'
p1848
sg5
g6
sg7
F0.1
sg8
(lp1849
g10
asg11
S'propane'
p1850
sg13
I6334
sg14
F0.2
sg15
F2.0
sg16
(lp1851
S''
p1852
asg19
F2.4
sg20
g21
ssS'mobley_52782'
p1853
(dp1854
g3
S'C(CO[N+](=O)[O-])O[N+](=O)[O-]'
p1855
sg183
g184
sg185
F0.02
sg8
(lp1856
g29
aS'Changed IUPAC name from nitroglycol to 1,2-dinitroxyethane for better handling/standardization.'
p1857
asg187
S'1,2-dinitroxyethane'
p1858
sg13
I40818
sg189
F0.1
sg190
F-5.73
sg16
(lp1859
S'nitrate'
p1860
asg193
F-5.97
sg194
g195
ssS'mobley_4584540'
p1861
(dp1862
g3
S'Cc1cccc(n1)C'
p1863
sg25
g26
sg27
F0.02
sg8
(lp1864
g29
asg30
S'2,6-dimethylpyridine'
p1865
sg13
I7937
sg14
F0.6
sg32
F-4.59
sg16
(lp1866
S'aromatic'
p1867
aS'heterocyclic'
p1868
asg37
F-3.36
sg38
g39
ssS'mobley_7573149'
p1869
(dp1870
g3
S'CCCOC(=O)C'
p1871
sg25
g26
sg27
F0.02
sg8
(lp1872
g29
asg30
S'propyl acetate'
p1873
sg13
I7997
sg14
F0.6
sg32
F-2.79
sg16
(lp1874
S'carboxylic acid ester'
p1875
asg37
F-3.33
sg38
g39
ssS'mobley_7758918'
p1876
(dp1877
g3
S'CCC(=O)O'
p1878
sg25
g26
sg27
F0.03
sg8
(lp1879
g29
asg30
S'propionic acid'
p1880
sg13
I1032
sg14
F0.6
sg32
F-6.46
sg16
(lp1881
S'carboxylic acid'
p1882
asg37
F-6.41
sg38
g39
ssS'mobley_2763835'
p1883
(dp1884
g3
S'CCOc1ccccc1'
p1885
sg25
g26
sg27
F0.02
sg8
(lp1886
g29
asg30
S'ethoxybenzene'
p1887
sg13
I7674
sg14
F0.6
sg32
F-2.22
sg16
(lp1888
S'alkyl aryl ether'
p1889
aS'aromatic'
p1890
asg37
F-2.01
sg38
g39
ssS'mobley_4218209'
p1891
(dp1892
g3
S'COc1ccc(cc1)N'
p1893
sg25
g26
sg27
F0.03
sg8
(lp1894
g29
asg30
S'4-methoxyaniline'
p1895
sg13
I7732
sg14
F0.6
sg32
F-7.48
sg16
(lp1896
S'alkyl aryl ether'
p1897
aS'primary amine'
p1898
aS'primary aromatic amine'
p1899
aS'aromatic'
p1900
asg37
F-6.92
sg38
g39
ssS'mobley_2727678'
p1901
(dp1902
g3
S'c1c(c(=O)[nH]c(=O)[nH]1)I'
p1903
sg424
g425
sg426
F0.06
sg8
(lp1904
g29
asg428
S'5-iodouracil'
p1905
sg13
I69672
sg430
F0.64
sg431
F-18.72
sg16
(lp1906
S'aryl iodide'
p1907
aS'oxo(het)arene'
p1908
aS'aromatic'
p1909
aS'heterocyclic'
p1910
asg437
F-17.14
sg438
g439
ssS'mobley_6973347'
p1911
(dp1912
g3
S'CCOC(=O)C'
p1913
sg25
g26
sg27
F0.02
sg8
(lp1914
g29
asg30
S'ethyl acetate'
p1915
sg13
I8857
sg14
F0.6
sg32
F-2.94
sg16
(lp1916
S'carboxylic acid ester'
p1917
asg37
F-3.23
sg38
g39
ssS'mobley_6175884'
p1918
(dp1919
g3
S'Cc1ccc(cc1)C=O'
p1920
sg25
g26
sg27
F0.03
sg8
(lp1921
g29
asg30
S'4-methylbenzaldehyde'
p1922
sg13
I7725
sg14
F0.6
sg32
F-4.27
sg16
(lp1923
S'aldehyde'
p1924
aS'aromatic'
p1925
asg37
F-4.9
sg38
g39
ssS'mobley_6235784'
p1926
(dp1927
g3
S'CC[C@H](C)Cl'
p1928
sg25
g26
sg27
F0.02
sg8
(lp1929
S'Renamed mobley_6235784 from 2-chlorobutane to (2S)-2-chlorobutane (the name from the 3D structure) since the former did not completely specify stereochemistry.\n'
p1930
asg30
S'2-chlorobutane'
p1931
sg13
I6563
sg14
F0.6
sg32
F0.0
sg16
(lp1932
S'alkyl chloride'
p1933
asg37
F1.21
sg38
g39
ssS'mobley_5026370'
p1934
(dp1935
g3
S'c1cnccc1C#N'
p1936
sg25
g26
sg27
F0.02
sg8
(lp1937
g29
asg30
S'pyridine-4-carbonitrile'
p1938
sg13
I7506
sg14
F0.6
sg32
F-6.02
sg16
(lp1939
S'carbonitrile'
p1940
aS'aromatic'
p1941
aS'heterocyclic'
p1942
asg37
F-5.01
sg38
g39
ssS'mobley_3762186'
p1943
(dp1944
g3
S'C(Cl)Cl'
p1945
sg25
g26
sg27
F0.01
sg8
(lp1946
g29
asg30
S'dichloromethane'
p1947
sg13
I6344
sg14
F0.6
sg32
F-1.31
sg16
(lp1948
S'alkyl chloride'
p1949
asg37
F0.23
sg38
g39
ssS'mobley_1977493'
p1950
(dp1951
g3
S'CCCCl'
p1952
sg25
g26
sg27
F0.02
sg8
(lp1953
g29
asg30
S'1-chloropropane'
p1954
sg13
I10899
sg14
F0.6
sg32
F-0.33
sg16
(lp1955
S'alkyl chloride'
p1956
asg37
F0.92
sg38
g39
ssS'mobley_1396156'
p1957
(dp1958
g3
S'c1(c(c(c(c(c1Cl)Cl)Cl)Cl)Cl)N(=O)=O'
p1959
sg424
g425
sg426
F0.05
sg8
(lp1960
g29
asg428
S'pentachloronitrobenzene'
p1961
sg13
I6720
sg430
F0.25
sg431
F-5.22
sg16
(lp1962
S'aryl chloride'
p1963
aS'nitro'
p1964
aS'aromatic'
p1965
asg437
F-2.26
sg438
g439
ssS'mobley_9507933'
p1966
(dp1967
g3
S'Cc1ccc(nc1)C'
p1968
sg25
g26
sg27
F0.02
sg8
(lp1969
g29
asg30
S'2,5-dimethylpyridine'
p1970
sg13
I11526
sg14
F0.6
sg32
F-4.72
sg16
(lp1971
S'aromatic'
p1972
aS'heterocyclic'
p1973
asg37
F-2.83
sg38
g39
ssS'mobley_9913368'
p1974
(dp1975
g3
S'C(=C/Cl)\\Cl'
p1976
sg25
g26
sg27
F0.02
sg8
(lp1977
S'Renamed mobley_9913368 from (E)-1,2-dichloroethylene to (E)-1,2-dichloroethylene (the name from the 3D structure) since the former did not completely specify stereochemistry.\n'
p1978
asg30
S'(E)-1,2-dichloroethylene'
p1979
sg13
I638186
sg14
F0.6
sg32
F-0.78
sg16
(lp1980
S'halogen derivative'
p1981
aS'alkene'
p1982
asg37
F1.2
sg38
g39
ssS'mobley_3167746'
p1983
(dp1984
g3
S'CCCCCCCC'
p1985
sg25
g26
sg27
F0.03
sg8
(lp1986
g29
asg30
S'octane'
p1987
sg13
I356
sg14
F0.6
sg32
F2.88
sg16
(lp1988
S''
p1989
asg37
F3.13
sg38
g39
ssS'mobley_2725802'
p1990
(dp1991
g3
S'CC(=O)N1CCCC1'
p1992
sg25
g26
sg27
F0.02
sg8
(lp1993
g29
asg30
S'1-pyrrolidin-1-ylethanone'
p1994
sg13
I77650
sg14
F0.6
sg32
F-9.8
sg16
(lp1995
S'tertiary carboxylic acid amide'
p1996
aS'heterocyclic'
p1997
asg37
F-7.97
sg38
g39
ssS'mobley_7912193'
p1998
(dp1999
g3
S'CCCCOC(=O)c1ccc(cc1)O'
p2000
sg424
g425
sg426
F0.06
sg8
(lp2001
g29
asg428
S'butyl paraben'
p2002
sg13
I7184
sg430
F0.27
sg431
F-8.72
sg16
(lp2003
S'phenol or hydroxyhetarene'
p2004
aS'carboxylic acid ester'
p2005
aS'aromatic'
p2006
asg437
F-9.19
sg438
g439
ssS'mobley_242480'
p2007
(dp2008
g3
S'c1ccc2c(c1)C(=O)c3c(ccc(c3C2=O)N)N'
p2009
sg270
g271
sg272
F0.024
sg8
(lp2010
g29
asg274
S'1,4-diamino-9,10-anthracenedione'
p2011
sg13
I31420
sg276
g277
(g281
S'ffffff\xd6?'
p2012
tp2013
Rp2014
sg287
g277
(g281
S"33333\xb3'\xc0"
p2015
tp2016
Rp2017
sg16
(lp2018
S'ketone'
p2019
aS'primary amine'
p2020
aS'primary aromatic amine'
p2021
aS'aromatic'
p2022
asg295
F-14.2
sg296
g297
ssS'mobley_5445548'
p2023
(dp2024
g3
S'CC(C)c1ccccc1'
p2025
sg25
g26
sg27
F0.02
sg8
(lp2026
g29
asg30
S'cumene'
p2027
sg13
I7406
sg14
F0.6
sg32
F-0.3
sg16
(lp2028
S'aromatic'
p2029
asg37
F-0.31
sg38
g39
ssS'mobley_8823527'
p2030
(dp2031
g3
S'c1cc(c(cc1Cl)c2cc(c(c(c2)Cl)Cl)Cl)Cl'
p2032
sg215
g216
sg217
F0.03
sg8
(lp2033
g29
asg219
S'1,2,3-trichloro-5-(2,5-dichlorophenyl)benzene'
p2034
sg13
I63088
sg221
F0.13
sg222
F-3.61
sg16
(lp2035
S'aryl chloride'
p2036
aS'aromatic'
p2037
asg225
F-0.86
sg226
g227
ssS'mobley_1019269'
p2038
(dp2039
g3
S'CCCCO'
p2040
sg25
g26
sg27
F0.02
sg8
(lp2041
g29
asg30
S'butan-1-ol'
p2042
sg13
I263
sg14
F0.6
sg32
F-4.72
sg16
(lp2043
S'primary alcohol'
p2044
asg37
F-3.14
sg38
g39
ssS'mobley_1755375'
p2045
(dp2046
g3
S'Cc1cccc(c1O)C'
p2047
sg25
g26
sg27
F0.03
sg8
(lp2048
g29
asg30
S'2,6-dimethylphenol'
p2049
sg13
I11335
sg14
F0.6
sg32
F-5.26
sg16
(lp2050
S'phenol or hydroxyhetarene'
p2051
aS'aromatic'
p2052
asg37
F-4.09
sg38
g39
ssS'mobley_4371692'
p2053
(dp2054
g3
S'c1ccc2c(c1)C(=O)c3c(ccc(c3C2=O)O)N'
p2055
sg270
g271
sg272
F0.022
sg8
(lp2056
g29
asg274
S'1-amino-4-hydroxy-9,10-anthracenedione'
p2057
sg13
I8323
sg276
g277
(g281
S'\xecQ\xb8\x1e\x85\xeb\xd1?'
p2058
tp2059
Rp2060
sg287
g277
(g281
S'\x8f\xc2\xf5(\\\x0f#\xc0'
p2061
tp2062
Rp2063
sg16
(lp2064
S'ketone'
p2065
aS'phenol or hydroxyhetarene'
p2066
aS'primary amine'
p2067
aS'primary aromatic amine'
p2068
aS'aromatic'
p2069
asg295
F-11.22
sg296
g297
ssS'mobley_1139153'
p2070
(dp2071
g3
S'CC(C)CC(C)(C)C'
p2072
sg25
g26
sg27
F0.03
sg8
(lp2073
g29
asg30
S'2,2,4-trimethylpentane'
p2074
sg13
I10907
sg14
F0.6
sg32
F2.89
sg16
(lp2075
S''
p2076
asg37
F2.93
sg38
g39
ssS'mobley_5471704'
p2077
(dp2078
g3
S'CC(C)CCOC(=O)C'
p2079
sg25
g26
sg27
F0.03
sg8
(lp2080
g29
asg30
S'isopentyl acetate'
p2081
sg13
I31276
sg14
F0.6
sg32
F-2.21
sg16
(lp2082
S'carboxylic acid ester'
p2083
asg37
F-3.05
sg38
g39
ssS'mobley_6060301'
p2084
(dp2085
g3
S'CCCCCCN'
p2086
sg25
g26
sg27
F0.02
sg8
(lp2087
g29
asg30
S'hexan-1-amine'
p2088
sg13
I8102
sg14
F0.6
sg32
F-3.95
sg16
(lp2089
S'primary amine'
p2090
aS'primary aliphatic amine (alkylamine)'
p2091
asg37
F-2.54
sg38
g39
ssS'mobley_588781'
p2092
(dp2093
g3
S'CCCCCCc1ccccc1'
p2094
sg25
g26
sg27
F0.03
sg8
(lp2095
g29
asg30
S'hexylbenzene'
p2096
sg13
I14109
sg14
F0.6
sg32
F-0.04
sg16
(lp2097
S'aromatic'
p2098
asg37
F0.24
sg38
g39
ssS'mobley_2354112'
p2099
(dp2100
g3
S'CCc1cccc(c1)O'
p2101
sg25
g26
sg27
F0.03
sg8
(lp2102
g29
asg30
S'3-ethylphenol'
p2103
sg13
I12101
sg14
F0.6
sg32
F-6.25
sg16
(lp2104
S'phenol or hydroxyhetarene'
p2105
aS'aromatic'
p2106
asg37
F-5.02
sg38
g39
ssS'mobley_6896128'
p2107
(dp2108
g3
S'CCCC[C@@H](C)CC'
p2109
sg25
g26
sg27
F0.03
sg8
(lp2110
S'Renamed mobley_6896128 from 3-methylheptane to (3S)-3-methylheptane (the name from the 3D structure) since the former did not completely specify stereochemistry.\n'
p2111
asg30
S'3-methylheptane'
p2112
sg13
I11519
sg14
F0.6
sg32
F2.97
sg16
(lp2113
S''
p2114
asg37
F3.29
sg38
g39
ssS'mobley_8772587'
p2115
(dp2116
g3
S'CCCCI'
p2117
sg25
g26
sg27
F0.02
sg8
(lp2118
g29
asg30
S'1-iodobutane'
p2119
sg13
I10962
sg14
F0.6
sg32
F-0.25
sg16
(lp2120
S'alkyl iodide'
p2121
asg37
F0.58
sg38
g39
ssS'mobley_5456566'
p2122
(dp2123
g3
S'c1(c(c(c(c(c1Cl)Cl)Cl)Cl)Cl)c2c(c(c(c(c2Cl)Cl)Cl)Cl)Cl'
p2124
sg215
g216
sg217
F0.06
sg8
(lp2125
g29
asg219
S'1,2,3,4,5-pentachloro-6-(2,3,4,5,6-pentachlorophenyl)benzene'
p2126
sg13
I16318
sg221
F1.0
sg222
F-2.98
sg16
(lp2127
S'aryl chloride'
p2128
aS'aromatic'
p2129
asg225
F0.87
sg226
g227
ssS'mobley_2371092'
p2130
(dp2131
g3
S'Cc1ccncc1C'
p2132
sg25
g26
sg27
F0.02
sg8
(lp2133
g29
asg30
S'3,4-dimethylpyridine'
p2134
sg13
I11417
sg14
F0.6
sg32
F-5.22
sg16
(lp2135
S'aromatic'
p2136
aS'heterocyclic'
p2137
asg37
F-3.18
sg38
g39
ssS'mobley_1328936'
p2138
(dp2139
g3
S'COC(=O)c1ccc(cc1)[N+](=O)[O-]'
p2140
sg25
g616
sg27
F0.03
sg8
(lp2141
g29
asg30
S'methyl 4-nitrobenzoate'
p2142
sg13
I12083
sg14
F0.6
sg32
F-6.88
sg16
(lp2143
S'carboxylic acid ester'
p2144
aS'nitro'
p2145
aS'aromatic'
p2146
asg37
F-6.39
sg38
g39
ssS'mobley_5499659'
p2147
(dp2148
g3
S'Cn1ccnc1'
p2149
sg25
g26
sg27
F0.03
sg8
(lp2150
g29
asg30
S'1-methylimidazole'
p2151
sg13
I1390
sg14
F0.6
sg32
F-8.41
sg16
(lp2152
S'aromatic'
p2153
aS'heterocyclic'
p2154
asg37
F-6.33
sg38
g39
ssS'mobley_2792521'
p2155
(dp2156
g3
S'CCC/C=C/C=O'
p2157
sg25
S'10.1021/jf60178a004 and 10.1016/S1387-3806(02)00927-2'
p2158
sg27
F0.02
sg8
(lp2159
S'Renamed mobley_2792521 from hex-2-enal to (E)-hex-2-enal (the name from the 3D structure) since the former did not completely specify stereochemistry.\n'
p2160
aS'Experimental value provided by J. Peter Guthrie, University of Western Ontario, 10/23/2013, as a weighted average of the Buttery et al. and Karl et al. values noted in the experimental reference field.'
p2161
asg30
S'(2E)-hex-2-enal'
p2162
sg13
I5281168
sg14
F0.6
sg32
F-3.68
sg16
(lp2163
S'aldehyde'
p2164
aS'alkene'
p2165
asg37
F-3.22
sg38
g39
ssS'mobley_9974966'
p2166
(dp2167
g3
S'CC(C)SC(C)C'
p2168
sg25
g26
sg27
F0.02
sg8
(lp2169
g29
asg30
S'2-isopropylsulfanylpropane'
p2170
sg13
I12264
sg14
F0.6
sg32
F-1.21
sg16
(lp2171
S'thioether'
p2172
asg37
F0.1
sg38
g39
ssS'mobley_6733657'
p2173
(dp2174
g3
S'C1[C@H]([C@@H]2[C@H]([C@H]1Cl)[C@]3(C(=C([C@@]2(C3(Cl)Cl)Cl)Cl)Cl)Cl)Cl'
p2175
sg183
g184
sg185
F0.03
sg8
(lp2176
g29
asg187
S'chlordane'
p2177
sg13
I5993
sg189
F0.1
sg190
F-3.44
sg16
(lp2178
S'alkyl chloride'
p2179
aS'alkene'
p2180
asg193
F-3.25
sg194
g195
ssS'mobley_9121449'
p2181
(dp2182
g3
S'CCC#C'
p2183
sg25
g26
sg27
F0.02
sg8
(lp2184
g29
asg30
S'but-1-yne'
p2185
sg13
I7846
sg14
F0.6
sg32
F-0.16
sg16
(lp2186
S'alkyne'
p2187
asg37
F0.51
sg38
g39
ssS'mobley_2310185'
p2188
(dp2189
g3
S'CCO'
p2190
sg25
g26
sg27
F0.03
sg8
(lp2191
g29
asg30
S'ethanol'
p2192
sg13
I702
sg14
F0.6
sg32
F-5.0
sg16
(lp2193
S'primary alcohol'
p2194
asg37
F-3.45
sg38
g39
ssS'mobley_7099614'
p2195
(dp2196
g3
S'C=CCCl'
p2197
sg25
g26
sg27
F0.02
sg8
(lp2198
g29
asg30
S'3-chloroprop-1-ene'
p2199
sg13
I7850
sg14
F0.6
sg32
F-0.57
sg16
(lp2200
S'alkyl chloride'
p2201
aS'alkene'
p2202
asg37
F0.88
sg38
g39
ssS'mobley_7295828'
p2203
(dp2204
g3
S'COc1ccccc1'
p2205
sg25
g26
sg27
F0.02
sg8
(lp2206
g29
asg30
S'anisole'
p2207
sg13
I7519
sg14
F0.6
sg32
F-2.45
sg16
(lp2208
S'alkyl aryl ether'
p2209
aS'aromatic'
p2210
asg37
F-2.3
sg38
g39
ssS'mobley_63712'
p2211
(dp2212
g3
S'CN1CCCCC1'
p2213
sg25
g26
sg27
F0.02
sg8
(lp2214
g29
asg30
S'1-methylpiperidine'
p2215
sg13
I12291
sg14
F0.6
sg32
F-3.88
sg16
(lp2216
S'tertiary amine'
p2217
aS'tertiary aliphatic amine (trialkylamine)'
p2218
aS'heterocyclic'
p2219
asg37
F-3.21
sg38
g39
ssS'mobley_3060426'
p2220
(dp2221
g3
S'CC(C)CCC(C)(C)C'
p2222
sg25
g26
sg27
F0.03
sg8
(lp2223
g29
asg30
S'2,2,5-trimethylhexane'
p2224
sg13
I19041
sg14
F0.6
sg32
F2.93
sg16
(lp2225
S''
p2226
asg37
F2.86
sg38
g39
ssS'mobley_5282042'
p2227
(dp2228
g3
S'CN(C)CCC=C1c2ccccc2CCc3c1cccc3'
p2229
sg270
g271
sg272
F0.031
sg8
(lp2230
g29
asg274
S'Amitriptyline'
p2231
sg13
I2160
sg276
F0.6
sg287
F-7.43
sg16
(lp2232
S'tertiary amine'
p2233
aS'tertiary aliphatic amine (trialkylamine)'
p2234
aS'alkene'
p2235
aS'aromatic'
p2236
asg295
F-8.28
sg296
g297
ssS'mobley_2607611'
p2237
(dp2238
g3
S'CCCCCCOC(=O)C'
p2239
sg25
g26
sg27
F0.03
sg8
(lp2240
g29
asg30
S'hexyl acetate'
p2241
sg13
I8908
sg14
F0.6
sg32
F-2.26
sg16
(lp2242
S'carboxylic acid ester'
p2243
asg37
F-2.97
sg38
g39
ssS'mobley_1036761'
p2244
(dp2245
g3
S'C1CCC(CC1)N'
p2246
sg25
g26
sg27
F0.02
sg8
(lp2247
g29
asg30
S'cyclohexanamine'
p2248
sg13
I7965
sg14
F0.6
sg32
F-4.59
sg16
(lp2249
S'primary amine'
p2250
aS'primary aliphatic amine (alkylamine)'
p2251
asg37
F-3.94
sg38
g39
ssS'mobley_4893032'
p2252
(dp2253
g3
S'CCCCC#N'
p2254
sg25
g26
sg27
F0.02
sg8
(lp2255
g29
asg30
S'pentanenitrile'
p2256
sg13
I8061
sg14
F0.6
sg32
F-3.52
sg16
(lp2257
S'carbonitrile'
p2258
asg37
F-2.16
sg38
g39
ssS'mobley_8558116'
p2259
(dp2260
g3
S'CN1CCOCC1'
p2261
sg25
g26
sg27
F0.03
sg8
(lp2262
g29
asg30
S'4-methylmorpholine'
p2263
sg13
I7972
sg14
F0.6
sg32
F-6.32
sg16
(lp2264
S'dialkyl ether'
p2265
aS'tertiary amine'
p2266
aS'tertiary aliphatic amine (trialkylamine)'
p2267
aS'heterocyclic'
p2268
asg37
F-5.87
sg38
g39
ssS'mobley_5518547'
p2269
(dp2270
g3
S'Cc1ccc(cc1)N'
p2271
sg25
g26
sg27
F0.03
sg8
(lp2272
g29
asg30
S'4-methylaniline'
p2273
sg13
I7813
sg14
F0.6
sg32
F-5.57
sg16
(lp2274
S'primary amine'
p2275
aS'primary aromatic amine'
p2276
aS'aromatic'
p2277
asg37
F-5.56
sg38
g39
ssS'mobley_3378420'
p2278
(dp2279
g3
S'CCCCCCCCCO'
p2280
sg25
g26
sg27
F0.03
sg8
(lp2281
g29
asg30
S'nonan-1-ol'
p2282
sg13
I8914
sg14
F0.6
sg32
F-3.88
sg16
(lp2283
S'primary alcohol'
p2284
asg37
F-2.54
sg38
g39
ssS'mobley_9794857'
p2285
(dp2286
g3
S'CC(C)(C)OC'
p2287
sg25
g1202
sg27
F0.02
sg8
(lp2288
g29
asg30
S'2-methoxy-2-methyl-propane'
p2289
sg13
I15413
sg14
F0.6
sg32
F-2.21
sg16
(lp2290
S'dialkyl ether'
p2291
asg37
F-0.68
sg38
g39
ssS'mobley_6456034'
p2292
(dp2293
g3
S'CC(C)COC(=O)C(C)C'
p2294
sg25
g26
sg27
F0.03
sg8
(lp2295
g29
asg30
S'isobutyl 2-methylpropanoate'
p2296
sg13
I7351
sg14
F0.6
sg32
F-1.69
sg16
(lp2297
S'carboxylic acid ester'
p2298
asg37
F-2.55
sg38
g39
ssS'mobley_3573480'
p2299
(dp2300
g3
S'CCCCCC(=O)C'
p2301
sg25
g26
sg27
F0.02
sg8
(lp2302
g29
asg30
S'heptan-2-one'
p2303
sg13
I8051
sg14
F0.6
sg32
F-3.04
sg16
(lp2304
S'ketone'
p2305
asg37
F-2.8
sg38
g39
ssS'mobley_676247'
p2306
(dp2307
g3
S'C(F)(F)(F)F'
p2308
sg25
g26
sg27
F0.01
sg8
(lp2309
g29
asg30
S'tetrafluoromethane'
p2310
sg13
I6393
sg14
F0.6
sg32
F3.12
sg16
(lp2311
S'halogen derivative'
p2312
asg37
F2.42
sg38
g39
ssS'mobley_5760563'
p2313
(dp2314
g3
S'COS(=O)(=O)OC'
p2315
sg25
S'10.1139/v78-385'
p2316
sg27
F0.02
sg8
(lp2317
g29
asg30
S'dimethyl sulfate'
p2318
sg13
I6497
sg14
F0.6
sg32
F-5.1
sg16
(lp2319
S'sulfuric acid diester'
p2320
asg37
F-7.85
sg38
g39
ssS'mobley_8754702'
p2321
(dp2322
g3
S'CCCOC=O'
p2323
sg25
g26
sg27
F0.02
sg8
(lp2324
g29
asg30
S'propyl formate'
p2325
sg13
I8073
sg14
F0.6
sg32
F-2.48
sg16
(lp2326
S'carboxylic acid ester'
p2327
asg37
F-3.5
sg38
g39
ssS'mobley_3169935'
p2328
(dp2329
g3
S'c1ccc(c(c1)N)Cl'
p2330
sg25
g26
sg27
F0.03
sg8
(lp2331
g29
asg30
S'2-chloroaniline'
p2332
sg13
I7240
sg14
F0.6
sg32
F-4.91
sg16
(lp2333
S'primary amine'
p2334
aS'primary aromatic amine'
p2335
aS'aryl chloride'
p2336
aS'aromatic'
p2337
asg37
F-4.96
sg38
g39
ssS'mobley_5311804'
p2338
(dp2339
g3
S'c1ccc(cc1)CO'
p2340
sg25
g26
sg27
F0.03
sg8
(lp2341
g29
asg30
S'phenylmethanol'
p2342
sg13
I244
sg14
F0.6
sg32
F-6.62
sg16
(lp2343
S'primary alcohol'
p2344
aS'aromatic'
p2345
asg37
F-5.41
sg38
g39
ssS'mobley_6115639'
p2346
(dp2347
g3
S'COP(=O)(OC)OC'
p2348
sg424
g425
sg426
F0.06
sg8
(lp2349
g29
asg428
S'trimethyl phosphate'
p2350
sg13
I10541
sg430
F0.1
sg431
F-8.7
sg16
(lp2351
S'phosphoric acid ester'
p2352
asg437
F-11.36
sg438
g439
ssS'mobley_6714389'
p2353
(dp2354
g3
S'CN'
p2355
sg25
g26
sg27
F0.01
sg8
(lp2356
g29
asg30
S'methanamine'
p2357
sg13
I6329
sg14
F0.6
sg32
F-4.55
sg16
(lp2358
S'primary amine'
p2359
aS'primary aliphatic amine (alkylamine)'
p2360
asg37
F-3.44
sg38
g39
ssS'mobley_9015240'
p2361
(dp2362
g3
S'CCCCCCCCBr'
p2363
sg25
g26
sg27
F0.03
sg8
(lp2364
g29
asg30
S'1-bromooctane'
p2365
sg13
I8140
sg14
F0.6
sg32
F0.52
sg16
(lp2366
S'alkyl bromide'
p2367
asg37
F1.92
sg38
g39
ssS'mobley_1417007'
p2368
(dp2369
g3
S'C1C=CC[C@@H]2[C@@H]1C(=O)N(C2=O)SC(Cl)(Cl)Cl'
p2370
sg183
g184
sg185
F0.04
sg8
(lp2371
S'Renamed mobley_1417007 from captan to (3aR,7aR)-2-(trichloromethylsulfanyl)-3a,4,7,7a-tetrahydroisoindole-1,3-dione (the name from the 3D structure) since the former did not completely specify stereochemistry.\n'
p2372
asg187
S'captan'
p2373
sg13
I8606
sg189
F1.93
sg190
F-9.01
sg16
(lp2374
S'halogen derivative'
p2375
aS'carboxylic acid imide, N-substituted'
p2376
aS'alkene'
p2377
aS'heterocyclic'
p2378
asg193
F-8.71
sg194
g195
ssS'mobley_2681549'
p2379
(dp2380
g3
S'c1c(cc(cc1Cl)Cl)Cl'
p2381
sg25
g26
sg27
F0.02
sg8
(lp2382
g29
asg30
S'1,3,5-trichlorobenzene'
p2383
sg13
I7950
sg14
F0.6
sg32
F-0.78
sg16
(lp2384
S'aryl chloride'
p2385
aS'aromatic'
p2386
asg37
F0.45
sg38
g39
ssS'mobley_4287564'
p2387
(dp2388
g3
S'Cc1ccccn1'
p2389
sg25
g26
sg27
F0.02
sg8
(lp2390
g29
asg30
S'2-methylpyridine'
p2391
sg13
I7975
sg14
F0.6
sg32
F-4.63
sg16
(lp2392
S'aromatic'
p2393
aS'heterocyclic'
p2394
asg37
F-3.41
sg38
g39
ssS'mobley_2043882'
p2395
(dp2396
g3
S'CC(=O)C1CCCCC1'
p2397
sg25
g26
sg27
F0.02
sg8
(lp2398
g29
asg30
S'1-cyclohexylethanone'
p2399
sg13
I13207
sg14
F0.6
sg32
F-3.9
sg16
(lp2400
S'ketone'
p2401
asg37
F-3.9
sg38
g39
ssS'mobley_352111'
p2402
(dp2403
g3
S'CC(=O)OCCOC(=O)C'
p2404
sg25
g26
sg27
F0.04
sg8
(lp2405
g29
asg30
S'2-acetoxyethyl acetate'
p2406
sg13
I8121
sg14
F0.6
sg32
F-6.34
sg16
(lp2407
S'carboxylic acid ester'
p2408
asg37
F-8.32
sg38
g39
ssS'mobley_3686115'
p2409
(dp2410
g3
S'CCOC(C)OCC'
p2411
sg1245
g1246
sg1247
F0.08
sg1248
(lp2412
g1250
ag29
ag169
asg1251
S'1,1-diethoxyethane'
p2413
sg13
I7765
sg14
F0.2
sg1253
F-3.28
sg16
(lp2414
S'acetal'
p2415
asg1256
F-1.89
sg1257
g1246
ssS'mobley_8337722'
p2416
(dp2417
g3
S'C[C@@H]1CC[C@H]([C@@H](C1)O)C(C)C'
p2418
sg270
g271
sg272
F0.021
sg8
(lp2419
g29
asg274
S'(1R,2S,5R)-2-isopropyl-5-methylcyclohexanol'
p2420
sg13
I16666
sg276
F0.28
sg287
F-3.2
sg16
(lp2421
S'secondary alcohol'
p2422
asg295
F-3.39
sg296
g297
ssS'mobley_7326706'
p2423
(dp2424
g3
S'CCOP(=S)(OCC)Oc1c(cc(c(n1)Cl)Cl)Cl'
p2425
sg183
g184
sg185
F0.04
sg8
(lp2426
g29
asg187
S'chlorpyrifos'
p2427
sg13
I2730
sg189
F0.21
sg190
F-5.04
sg16
(lp2428
S'aryl chloride'
p2429
aS'thiophosphoric acid ester'
p2430
aS'aromatic'
p2431
aS'heterocyclic'
p2432
asg193
F-9.05
sg194
g195
ssS'mobley_3144334'
p2433
(dp2434
g3
S'Cc1ccc(c(c1)O)C'
p2435
sg25
g26
sg27
F0.03
sg8
(lp2436
g29
asg30
S'2,5-dimethylphenol'
p2437
sg13
I7267
sg14
F0.6
sg32
F-5.91
sg16
(lp2438
S'phenol or hydroxyhetarene'
p2439
aS'aromatic'
p2440
asg37
F-4.39
sg38
g39
ssS'mobley_5973402'
p2441
(dp2442
g3
S'CC(C)CCO'
p2443
sg25
g26
sg27
F0.03
sg8
(lp2444
g29
asg30
S'3-methylbutan-1-ol'
p2445
sg13
I31260
sg14
F0.6
sg32
F-4.42
sg16
(lp2446
S'primary alcohol'
p2447
asg37
F-2.92
sg38
g39
ssS'mobley_6353617'
p2448
(dp2449
g3
S'CC(=O)c1cccnc1'
p2450
sg25
g26
sg27
F0.03
sg8
(lp2451
g29
asg30
S'1-(3-pyridyl)ethanone'
p2452
sg13
I9589
sg14
F0.6
sg32
F-8.26
sg16
(lp2453
S'ketone'
p2454
aS'aromatic'
p2455
aS'heterocyclic'
p2456
asg37
F-7.1
sg38
g39
ssS'mobley_2261979'
p2457
(dp2458
g3
S'c1cc2cccc3c2c(c1)CC3'
p2459
sg25
g26
sg27
F0.03
sg8
(lp2460
g29
asg30
S'acenaphthene'
p2461
sg13
I6734
sg14
F0.6
sg32
F-3.15
sg16
(lp2462
S'aromatic'
p2463
asg37
F-3.51
sg38
g39
ssS'mobley_4715906'
p2464
(dp2465
g3
S'C[C@@H]1CCCC[C@@H]1C'
p2466
sg25
g26
sg27
F0.02
sg8
(lp2467
S'Renamed mobley_4715906 from 1,2-dimethylcyclohexane to (1R,2S)-1,2-dimethylcyclohexane (the name from the 3D structure) since the former did not completely specify stereochemistry.\n'
p2468
asg30
S'1,2-dimethylcyclohexane'
p2469
sg13
I11416
sg14
F0.6
sg32
F1.58
sg16
(lp2470
S''
p2471
asg37
F2.05
sg38
g39
ssS'mobley_5952846'
p2472
(dp2473
g3
S'C(=C(Cl)Cl)(Cl)Cl'
p2474
sg25
g26
sg27
F0.02
sg8
(lp2475
g29
asg30
S'1,1,2,2-tetrachloroethylene'
p2476
sg13
I31373
sg14
F0.6
sg32
F0.1
sg16
(lp2477
S'halogen derivative'
p2478
asg37
F1.41
sg38
g39
ssS'mobley_1903702'
p2479
(dp2480
g3
S'CC[C@H](C)O'
p2481
sg25
g26
sg27
F0.03
sg8
(lp2482
S'Renamed mobley_1903702 from butan-2-ol to (2S)-butan-2-ol (the name from the 3D structure) since the former did not completely specify stereochemistry.\n'
p2483
asg30
S'butan-2-ol'
p2484
sg13
I6568
sg14
F0.6
sg32
F-4.62
sg16
(lp2485
S'secondary alcohol'
p2486
asg37
F-3.12
sg38
g39
ssS'mobley_5220185'
p2487
(dp2488
g3
S'CCc1cnccn1'
p2489
sg25
g26
sg27
F0.03
sg8
(lp2490
g29
asg30
S'2-ethylpyrazine'
p2491
sg13
I26331
sg14
F0.6
sg32
F-5.45
sg16
(lp2492
S'aromatic'
p2493
aS'heterocyclic'
p2494
asg37
F-5.68
sg38
g39
ssS'mobley_5510474'
p2495
(dp2496
g3
S'c1ccc2c(c1)Oc3c(c(c(c(c3Cl)Cl)Cl)Cl)O2'
p2497
sg215
g216
sg217
F0.03
sg8
(lp2498
g29
asg219
S'1,2,3,4-tetrachlorodibenzo-p-dioxin'
p2499
sg13
I35454
sg221
F0.14
sg222
F-3.81
sg16
(lp2500
S'diaryl ether'
p2501
aS'aryl chloride'
p2502
aS'aromatic'
p2503
aS'heterocyclic'
p2504
asg225
F-2.7
sg226
g227
ssS'mobley_3980099'
p2505
(dp2506
g3
S'c1cc(c(c(c1)Cl)Cl)Cl'
p2507
sg25
g26
sg27
F0.02
sg8
(lp2508
g29
asg30
S'1,2,3-trichlorobenzene'
p2509
sg13
I6895
sg14
F0.6
sg32
F-1.24
sg16
(lp2510
S'aryl chloride'
p2511
aS'aromatic'
p2512
asg37
F-0.38
sg38
g39
ssS'mobley_1944394'
p2513
(dp2514
g3
S'CN(C)CCOC(c1ccccc1)c2ccccc2'
p2515
sg270
g271
sg272
F0.031
sg8
(lp2516
g29
asg274
S'[2-benzhydryloxyethyl]-dimethyl-amine'
p2517
sg13
I3100
sg276
g277
(g281
S'\xd7\xa3p=\n\xd7\xe3?'
p2518
tp2519
Rp2520
sg287
g277
(g281
S'\xaeG\xe1z\x14\xae"\xc0'
p2521
tp2522
Rp2523
sg16
(lp2524
S'dialkyl ether'
p2525
aS'tertiary amine'
p2526
aS'tertiary aliphatic amine (trialkylamine)'
p2527
aS'aromatic'
p2528
asg295
F-8.15
sg296
g297
ssS'mobley_2501588'
p2529
(dp2530
g3
S'CCC[N@@](CC1CC1)c2c(cc(cc2[N+](=O)[O-])C(F)(F)F)[N+](=O)[O-]'
p2531
sg183
g184
sg185
F0.04
sg8
(lp2532
g29
asg187
S'profluralin'
p2533
sg13
I33500
sg189
F1.37
sg190
F-2.45
sg16
(lp2534
S'tertiary amine'
p2535
aS'tertiary aliphatic/aromatic amine (alkylarylamine)'
p2536
aS'halogen derivative'
p2537
aS'nitro'
p2538
aS'aromatic'
p2539
asg193
F-1.81
sg194
g195
ssS'mobley_3968739'
p2540
(dp2541
g3
S'COC(=O)c1ccccc1'
p2542
sg25
g26
sg27
F0.03
sg8
(lp2543
g29
asg30
S'methyl benzoate'
p2544
sg13
I7150
sg14
F0.6
sg32
F-3.92
sg16
(lp2545
S'carboxylic acid ester'
p2546
aS'aromatic'
p2547
asg37
F-5.06
sg38
g39
ssS'mobley_9897248'
p2548
(dp2549
g3
S'CC(=CCC/C(=C\\CO)/C)C'
p2550
sg270
g271
sg272
F0.022
sg8
(lp2551
g29
aS'Former IUPAC name Nerol replaced with one generated from the 3D structure, (2Z)-3,7-dimethylocta-2,6-dien-1-ol'
p2552
asg274
S'(2Z)-3,7-dimethylocta-2,6-dien-1-ol'
p2553
sg13
I643820
sg276
g277
(g281
S'\x00\x00\x00\x00\x00\x00\xd0?'
p2554
tp2555
Rp2556
sg287
g277
(g281
S'\x1f\x85\xebQ\xb8\x1e\x13\xc0'
p2557
tp2558
Rp2559
sg16
(lp2560
S'primary alcohol'
p2561
aS'alkene'
p2562
asg295
F-2.64
sg296
g297
ssS'mobley_3727287'
p2563
(dp2564
g3
S'C1=CC(=O)C=CC1=O'
p2565
sg5
g6
sg7
F0.1
sg8
(lp2566
g10
asg11
S'quinone'
p2567
sg13
I4650
sg14
F0.2
sg15
F-6.5
sg16
(lp2568
S'ketone'
p2569
aS'alkene'
p2570
asg19
F-6.9
sg20
g21
ssS'mobley_2577969'
p2571
(dp2572
g3
S'c1cc2ccc3cccc4c3c2c(c1)cc4'
p2573
sg25
g26
sg27
F0.03
sg8
(lp2574
g29
asg30
S'pyrene'
p2575
sg13
I31423
sg14
F0.6
sg32
F-4.52
sg16
(lp2576
S'aromatic'
p2577
asg37
F-6.62
sg38
g39
ssS'mobley_6620221'
p2578
(dp2579
g3
S'CC1(Cc2cccc(c2O1)OC(=O)NC)C'
p2580
sg183
g184
sg185
F0.04
sg8
(lp2581
g29
asg187
S'carbofuran'
p2582
sg13
I2566
sg189
F0.3
sg190
F-9.61
sg16
(lp2583
S'alkyl aryl ether'
p2584
aS'carbamic acid ester (urethane)'
p2585
aS'aromatic'
p2586
aS'heterocyclic'
p2587
asg193
F-11.21
sg194
g195
ssS'mobley_3370989'
p2588
(dp2589
g3
S'CC(F)F'
p2590
sg25
g26
sg27
F0.02
sg8
(lp2591
g29
asg30
S'1,1-difluoroethane'
p2592
sg13
I6368
sg14
F0.6
sg32
F-0.11
sg16
(lp2593
S'alkyl fluoride'
p2594
asg37
F0.19
sg38
g39
ssS'mobley_6239320'
p2595
(dp2596
g3
S'c1(=O)[nH]c(=O)[nH]c(=O)[nH]1'
p2597
sg424
g425
sg426
F0.07
sg8
(lp2598
g29
asg428
S'cyanuric acid'
p2599
sg13
I7956
sg430
F0.27
sg431
F-18.06
sg16
(lp2600
S'oxo(het)arene'
p2601
aS'aromatic'
p2602
aS'heterocyclic'
p2603
asg437
F-21.71
sg438
g439
ssS'mobley_5056289'
p2604
(dp2605
g3
S'C[C@H]1CCCO1'
p2606
sg25
g26
sg27
F0.02
sg8
(lp2607
S'Renamed mobley_5056289 from 2-methyltetrahydrofuran to (2S)-2-methyltetrahydrofuran (the name from the 3D structure) since the former did not completely specify stereochemistry.\n'
p2608
asg30
S'2-methyltetrahydrofuran'
p2609
sg13
I7301
sg14
F0.6
sg32
F-3.3
sg16
(lp2610
S'dialkyl ether'
p2611
aS'heterocyclic'
p2612
asg37
F-1.95
sg38
g39
ssS'mobley_6358463'
p2613
(dp2614
g3
S'c1ccc(c(c1)C(F)(F)F)C(F)(F)F'
p2615
sg25
g26
sg27
F0.03
sg8
(lp2616
g29
asg30
S'1,2-bis(trifluoromethyl)benzene'
p2617
sg13
I9818
sg14
F0.6
sg32
F1.07
sg16
(lp2618
S'halogen derivative'
p2619
aS'aromatic'
p2620
asg37
F-1.58
sg38
g39
ssS'mobley_1261349'
p2621
(dp2622
g3
S'CC(C)(C)C'
p2623
sg25
g26
sg27
F0.02
sg8
(lp2624
g29
asg30
S'neopentane'
p2625
sg13
I10041
sg14
F0.6
sg32
F2.51
sg16
(lp2626
S''
p2627
asg37
F2.6
sg38
g39
ssS'mobley_1363784'
p2628
(dp2629
g3
S'Cc1cc(cnc1)C'
p2630
sg25
g26
sg27
F0.02
sg8
(lp2631
g29
asg30
S'3,5-dimethylpyridine'
p2632
sg13
I11565
sg14
F0.6
sg32
F-4.84
sg16
(lp2633
S'aromatic'
p2634
aS'heterocyclic'
p2635
asg37
F-2.94
sg38
g39
ssS'mobley_628086'
p2636
(dp2637
g3
S'C[C@@H](C(F)(F)F)O'
p2638
sg25
g26
sg27
F0.03
sg8
(lp2639
S'Renamed mobley_628086 from 1,1,1-trifluoropropan-2-ol to (2S)-1,1,1-trifluoropropan-2-ol (the name from the 3D structure) since the former did not completely specify stereochemistry.\n'
p2640
asg30
S'1,1,1-trifluoropropan-2-ol'
p2641
sg13
I9774
sg14
F0.6
sg32
F-4.16
sg16
(lp2642
S'secondary alcohol'
p2643
aS'halogen derivative'
p2644
asg37
F-3.56
sg38
g39
ssS'mobley_8207196'
p2645
(dp2646
g3
S'CCNc1nc(nc(n1)Cl)NCC'
p2647
sg183
g184
sg185
F0.04
sg8
(lp2648
g29
asg187
S'simazine'
p2649
sg13
I5216
sg189
F0.1
sg190
F-10.22
sg16
(lp2650
S'secondary amine'
p2651
aS'secondary aliphatic/aromatic amine (alkylarylamine)'
p2652
aS'aryl chloride'
p2653
aS'aromatic'
p2654
aS'heterocyclic'
p2655
asg193
F-8.63
sg194
g195
ssS'mobley_7039935'
p2656
(dp2657
g3
S'c1ccc2c(c1)cccc2O'
p2658
sg25
g26
sg27
F0.03
sg8
(lp2659
g29
asg30
S'naphthalen-1-ol'
p2660
sg13
I7005
sg14
F0.6
sg32
F-7.67
sg16
(lp2661
S'phenol or hydroxyhetarene'
p2662
aS'aromatic'
p2663
asg37
F-7.51
sg38
g39
ssS'mobley_1662128'
p2664
(dp2665
g3
S'CCC=C'
p2666
sg25
g26
sg27
F0.02
sg8
(lp2667
g29
asg30
S'but-1-ene'
p2668
sg13
I7844
sg14
F0.6
sg32
F1.38
sg16
(lp2669
S'alkene'
p2670
asg37
F2.48
sg38
g39
ssS'mobley_9510785'
p2671
(dp2672
g3
S'c1ccc(cc1)c2cc(c(c(c2Cl)Cl)Cl)Cl'
p2673
sg215
g216
sg217
F0.03
sg8
(lp2674
g29
asg219
S'1,2,3,4-tetrachloro-5-phenyl-benzene'
p2675
sg13
I36401
sg221
F1.0
sg222
F-3.48
sg16
(lp2676
S'aryl chloride'
p2677
aS'aromatic'
p2678
asg225
F-1.34
sg226
g227
ssS'mobley_4465023'
p2679
(dp2680
g3
S'C(=C\\Cl)\\Cl'
p2681
sg25
g26
sg27
F0.02
sg8
(lp2682
S'Renamed mobley_4465023 from (Z)-1,2-dichloroethylene to (Z)-1,2-dichloroethylene (the name from the 3D structure) since the former did not completely specify stereochemistry.\n'
p2683
asg30
S'(Z)-1,2-dichloroethylene'
p2684
sg13
I643833
sg14
F0.6
sg32
F-1.17
sg16
(lp2685
S'halogen derivative'
p2686
aS'alkene'
p2687
asg37
F0.31
sg38
g39
ssS'mobley_4364398'
p2688
(dp2689
g3
S'CI'
p2690
sg25
g26
sg27
F0.01
sg8
(lp2691
g29
asg30
S'iodomethane'
p2692
sg13
I6328
sg14
F0.6
sg32
F-0.89
sg16
(lp2693
S'alkyl iodide'
p2694
asg37
F0.03
sg38
g39
ssS'mobley_6917738'
p2695
(dp2696
g3
S'COCCN'
p2697
sg25
g26
sg27
F0.03
sg8
(lp2698
g29
asg30
S'2-methoxyethanamine'
p2699
sg13
I8018
sg14
F0.6
sg32
F-6.55
sg16
(lp2700
S'dialkyl ether'
p2701
aS'primary amine'
p2702
aS'primary aliphatic amine (alkylamine)'
p2703
asg37
F-5.62
sg38
g39
ssS'mobley_6102880'
p2704
(dp2705
g3
S'c1ccc(cc1)Oc2ccccc2'
p2706
sg270
g271
sg272
F0.02
sg8
(lp2707
g29
asg274
S'diphenyl ether'
p2708
sg13
I7583
sg276
g277
(g281
S'\x14\xaeG\xe1z\x14\xe6?'
p2709
tp2710
Rp2711
sg287
g277
(g281
S'\xf6(\\\x8f\xc2\xf5\x06\xc0'
p2712
tp2713
Rp2714
sg16
(lp2715
S'diaryl ether'
p2716
aS'aromatic'
p2717
asg295
F-2.79
sg296
g297
ssS'mobley_8118832'
p2718
(dp2719
g3
S'C=CCO'
p2720
sg25
g26
sg27
F0.03
sg8
(lp2721
g29
asg30
S'prop-2-en-1-ol'
p2722
sg13
I7858
sg14
F0.6
sg32
F-5.03
sg16
(lp2723
S'primary alcohol'
p2724
aS'alkene'
p2725
asg37
F-3.23
sg38
g39
ssS'mobley_5076071'
p2726
(dp2727
g3
S'CCN(CC)c1c(cc(c(c1[N+](=O)[O-])N)C(F)(F)F)[N+](=O)[O-]'
p2728
sg183
g184
sg185
F0.04
sg8
(lp2729
g29
aS'Changed IUPAC name from dinitramine to 1-N,1-N-diethyl-2,6-dinitro-4-(trifluoromethyl)benzene-1,3-diamine for better handling/standardization.'
p2730
asg187
S'1-N,1-N-diethyl-2,6-dinitro-4-(trifluoromethyl)benzene-1,3-diamine'
p2731
sg13
I34468
sg189
F1.93
sg190
F-5.66
sg16
(lp2732
S'primary amine'
p2733
aS'primary aromatic amine'
p2734
aS'tertiary amine'
p2735
aS'tertiary aliphatic/aromatic amine (alkylarylamine)'
p2736
aS'halogen derivative'
p2737
aS'nitro'
p2738
aS'aromatic'
p2739
asg193
F-7.42
sg194
g195
ssS'mobley_20524'
p2740
(dp2741
g3
S'c1ccc(cc1)O'
p2742
sg5
g6
sg7
F0.1
sg8
(lp2743
g10
asg11
S'phenol'
p2744
sg13
I996
sg14
F0.2
sg15
F-6.6
sg16
(lp2745
S'phenol or hydroxyhetarene'
p2746
aS'aromatic'
p2747
asg19
F-4.6
sg20
g21
ssS'mobley_7378987'
p2748
(dp2749
g3
S'Cn1cnc2c1c(=O)n(c(=O)n2C)C'
p2750
sg424
g425
sg426
F0.07
sg8
(lp2751
g29
asg428
S'caffeine'
p2752
sg13
I2519
sg430
F0.74
sg431
F-12.64
sg16
(lp2753
S'oxo(het)arene'
p2754
aS'aromatic'
p2755
aS'heterocyclic'
p2756
asg437
F-17.57
sg438
g439
ssS'mobley_7227357'
p2757
(dp2758
g3
S'CCC(CC)O'
p2759
sg25
g26
sg27
F0.02
sg8
(lp2760
g29
asg30
S'pentan-3-ol'
p2761
sg13
I11428
sg14
F0.6
sg32
F-4.35
sg16
(lp2762
S'secondary alcohol'
p2763
asg37
F-2.95
sg38
g39
ssS'mobley_9139060'
p2764
(dp2765
g3
S'CC1CCC(CC1)C'
p2766
sg25
g26
sg27
F0.02
sg8
(lp2767
g29
asg30
S'1,4-dimethylcyclohexane'
p2768
sg13
I11523
sg14
F0.6
sg32
F2.11
sg16
(lp2769
S''
p2770
asg37
F2.05
sg38
g39
ssS'mobley_2996632'
p2771
(dp2772
g3
S'C(Cl)(Cl)Cl'
p2773
sg25
g26
sg27
F0.02
sg8
(lp2774
g29
asg30
S'chloroform'
p2775
sg13
I6212
sg14
F0.6
sg32
F-1.08
sg16
(lp2776
S'halogen derivative'
p2777
asg37
F0.32
sg38
g39
ssS'mobley_9073553'
p2778
(dp2779
g3
S'CSC'
p2780
sg25
g26
sg27
F0.02
sg8
(lp2781
g29
asg30
S'methylsulfanylmethane'
p2782
sg13
I1068
sg14
F0.6
sg32
F-1.61
sg16
(lp2783
S'thioether'
p2784
asg37
F0.26
sg38
g39
ssS'mobley_397645'
p2785
(dp2786
g3
S'CCOC(=O)c1ccccc1'
p2787
sg25
g26
sg27
F0.02
sg8
(lp2788
g29
asg30
S'ethyl benzoate'
p2789
sg13
I7165
sg14
F0.6
sg32
F-3.64
sg16
(lp2790
S'carboxylic acid ester'
p2791
aS'aromatic'
p2792
asg37
F-4.68
sg38
g39
ssS'mobley_2518989'
p2793
(dp2794
g3
S'CCOP(=S)(OCC)S[C@@H](CCl)N1C(=O)c2ccccc2C1=O'
p2795
sg183
g184
sg185
F0.06
sg8
(lp2796
S'Renamed mobley_2518989 from 2-(2-chloro-1-diethoxyphosphinothioylsulfanylethyl)isoindole-1,3-dione to 2-[(1S)-2-chloro-1-diethoxyphosphinothioylsulfanyl-ethyl]isoindoline-1,3-dione (the name from the 3D structure) since the former did not completely specify stereochemistry.\n'
p2797
asg187
S'dialifor'
p2798
sg13
I25146
sg189
F1.93
sg190
F-5.74
sg16
(lp2799
S'alkyl chloride'
p2800
aS'carboxylic acid imide, N-substituted'
p2801
aS'thiophosphoric acid ester'
p2802
aS'aromatic'
p2803
aS'heterocyclic'
p2804
asg193
F-15.1
sg194
g195
ssS'mobley_282648'
p2805
(dp2806
g3
S'c1ccc2ccccc2c1'
p2807
sg25
g26
sg27
F0.02
sg8
(lp2808
g29
asg30
S'naphthalene'
p2809
sg13
I931
sg14
F0.6
sg32
F-2.4
sg16
(lp2810
S'aromatic'
p2811
asg37
F-3.34
sg38
g39
ssS'mobley_5857'
p2812
(dp2813
g3
S'c1ccc2c(c1)cccn2'
p2814
sg25
g26
sg27
F0.02
sg8
(lp2815
g29
asg30
S'quinoline'
p2816
sg13
I7047
sg14
F0.6
sg32
F-5.72
sg16
(lp2817
S'aromatic'
p2818
aS'heterocyclic'
p2819
asg37
F-4.87
sg38
g39
ssS'mobley_197466'
p2820
(dp2821
g3
S'CC(=O)C1CC1'
p2822
sg25
g26
sg27
F0.02
sg8
(lp2823
g29
asg30
S'1-cyclopropylethanone'
p2824
sg13
I13004
sg14
F0.6
sg32
F-4.61
sg16
(lp2825
S'ketone'
p2826
asg37
F-3.74
sg38
g39
ssS'mobley_718988'
p2827
(dp2828
g3
S'CCCCCCCN'
p2829
sg25
g26
sg27
F0.03
sg8
(lp2830
g29
asg30
S'heptan-1-amine'
p2831
sg13
I8127
sg14
F0.6
sg32
F-3.79
sg16
(lp2832
S'primary amine'
p2833
aS'primary aliphatic amine (alkylamine)'
p2834
asg37
F-2.72
sg38
g39
ssS'mobley_967099'
p2835
(dp2836
g3
S'CC(C)[N+](=O)[O-]'
p2837
sg25
g26
sg27
F0.02
sg8
(lp2838
g29
asg30
S'2-nitropropane'
p2839
sg13
I398
sg14
F0.6
sg32
F-3.13
sg16
(lp2840
S'nitro'
p2841
asg37
F-1.61
sg38
g39
ssS'mobley_1792062'
p2842
(dp2843
g3
S'C(CBr)Br'
p2844
sg25
g26
sg27
F0.02
sg8
(lp2845
g29
asg30
S'1,2-dibromoethane'
p2846
sg13
I7839
sg14
F0.6
sg32
F-2.33
sg16
(lp2847
S'alkyl bromide'
p2848
asg37
F0.19
sg38
g39
ssS'mobley_7203421'
p2849
(dp2850
g3
S'CCCCCC(=O)N'
p2851
sg25
g26
sg27
F0.03
sg8
(lp2852
g29
asg30
S'hexanamide'
p2853
sg13
I12332
sg14
F0.6
sg32
F-9.31
sg16
(lp2854
S'primary carboxylic acid amide'
p2855
asg37
F-8.14
sg38
g39
ssS'mobley_4678740'
p2856
(dp2857
g3
S'c1cc(cc(c1)C(F)(F)F)C(F)(F)F'
p2858
sg1245
g1246
sg1247
F0.04
sg1248
(lp2859
g1250
ag29
aS'Changed IUPAC name from m-bis(trifluoromethyl)benzene to 1,3-bis(trifluoromethyl)benzene for better handling/standardization.'
p2860
ag169
asg1251
S'm-bis(trifluoromethyl)benzene'
p2861
sg13
I223106
sg14
F0.2
sg1253
F1.07
sg16
(lp2862
S'halogen derivative'
p2863
aS'aromatic'
p2864
asg1256
F-0.27
sg1257
g1246
ssS'mobley_7200804'
p2865
(dp2866
g3
S'c1ccc(c(c1)O)F'
p2867
sg25
g26
sg27
F0.03
sg8
(lp2868
g29
asg30
S'2-fluorophenol'
p2869
sg13
I9707
sg14
F0.6
sg32
F-5.29
sg16
(lp2870
S'phenol or hydroxyhetarene'
p2871
aS'aryl fluoride'
p2872
aS'aromatic'
p2873
asg37
F-3.24
sg38
g39
ssS'mobley_5094777'
p2874
(dp2875
g3
S'c1ccc2c(c1)CCC2'
p2876
sg25
g26
sg27
F0.02
sg8
(lp2877
g29
asg30
S'indane'
p2878
sg13
I10326
sg14
F0.6
sg32
F-1.46
sg16
(lp2879
S'aromatic'
p2880
asg37
F-1.7
sg38
g39
ssS'mobley_4561957'
p2881
(dp2882
g3
S'CC(C)C(C)C'
p2883
sg25
g26
sg27
F0.02
sg8
(lp2884
g29
asg30
S'2,3-dimethylbutane'
p2885
sg13
I6589
sg14
F0.6
sg32
F2.34
sg16
(lp2886
S''
p2887
asg37
F2.69
sg38
g39
ssS'mobley_5852491'
p2888
(dp2889
g3
S'CC1CCCC1'
p2890
sg25
g26
sg27
F0.02
sg8
(lp2891
g29
asg30
S'methylcyclopentane'
p2892
sg13
I7296
sg14
F0.6
sg32
F1.59
sg16
(lp2893
S''
p2894
asg37
F2.12
sg38
g39
ssS'mobley_1987439'
p2895
(dp2896
g3
S'Cc1cc(cc(c1)C)C'
p2897
sg25
g26
sg27
F0.02
sg8
(lp2898
g29
asg30
S'mesitylene'
p2899
sg13
I7947
sg14
F0.6
sg32
F-0.9
sg16
(lp2900
S'aromatic'
p2901
asg37
F0.04
sg38
g39
ssS'mobley_8492526'
p2902
(dp2903
g3
S'CCCCC=O'
p2904
sg25
g26
sg27
F0.02
sg8
(lp2905
g29
asg30
S'pentanal'
p2906
sg13
I8063
sg14
F0.6
sg32
F-3.03
sg16
(lp2907
S'aldehyde'
p2908
asg37
F-2.96
sg38
g39
ssS'mobley_4494568'
p2909
(dp2910
g3
S'Cc1ccc(cc1)Br'
p2911
sg25
g26
sg27
F0.02
sg8
(lp2912
g29
asg30
S'1-bromo-4-methyl-benzene'
p2913
sg13
I7805
sg14
F0.6
sg32
F-1.39
sg16
(lp2914
S'aryl bromide'
p2915
aS'aromatic'
p2916
asg37
F0.04
sg38
g39
ssS'mobley_7869158'
p2917
(dp2918
g3
S'CC[C@H](C)O[N+](=O)[O-]'
p2919
sg183
g184
sg185
F0.02
sg8
(lp2920
g29
aS'Changed IUPAC name from 2-butyl nitrate to [(2S)-butan-2-yl] nitrate for better handling/standardization.'
p2921
asg187
S'[(2S)-butan-2-yl] nitrate'
p2922
sg13
I79123
sg189
F0.1
sg190
F-1.82
sg16
(lp2923
S'nitrate'
p2924
asg193
F-1.68
sg194
g195
ssS'mobley_7893124'
p2925
(dp2926
g3
S'CC(C)(C)c1ccccc1'
p2927
sg25
g26
sg27
F0.03
sg8
(lp2928
g29
asg30
S'tert-butylbenzene'
p2929
sg13
I7366
sg14
F0.6
sg32
F-0.44
sg16
(lp2930
S'aromatic'
p2931
asg37
F-0.42
sg38
g39
ssS'mobley_5880265'
p2932
(dp2933
g3
S'CCCCOCCO'
p2934
sg25
g26
sg27
F0.03
sg8
(lp2935
g29
asg30
S'2-butoxyethanol'
p2936
sg13
I8133
sg14
F0.6
sg32
F-6.25
sg16
(lp2937
S'primary alcohol'
p2938
aS'dialkyl ether'
p2939
asg37
F-4.07
sg38
g39
ssS'mobley_4479135'
p2940
(dp2941
g3
S'C=C(c1ccccc1)c2ccccc2'
p2942
sg270
g271
sg272
F0.023
sg8
(lp2943
g29
asg274
S'1,1-diphenylethene'
p2944
sg13
I10740
sg276
g277
(g281
S'\x9a\x99\x99\x99\x99\x99\xb9?'
p2945
tp2946
Rp2947
sg287
g277
(g281
S'=\n\xd7\xa3p=\x06\xc0'
p2948
tp2949
Rp2950
sg16
(lp2951
S'alkene'
p2952
aS'aromatic'
p2953
asg295
F-3.92
sg296
g297
ssS'mobley_2693089'
p2954
(dp2955
g3
S'CC(C)Cc1cnccn1'
p2956
sg25
g26
sg27
F0.03
sg8
(lp2957
g29
asg30
S'2-isobutylpyrazine'
p2958
sg13
I34591
sg14
F0.6
sg32
F-5.04
sg16
(lp2959
S'aromatic'
p2960
aS'heterocyclic'
p2961
asg37
F-5.1
sg38
g39
ssS'mobley_8525830'
p2962
(dp2963
g3
S'CCCCCI'
p2964
sg25
g26
sg27
F0.02
sg8
(lp2965
g29
asg30
S'1-iodopentane'
p2966
sg13
I12335
sg14
F0.6
sg32
F-0.14
sg16
(lp2967
S'alkyl iodide'
p2968
asg37
F0.66
sg38
g39
ssS'mobley_6232400'
p2969
(dp2970
g3
S'c1cc(cnc1)C=O'
p2971
sg25
g26
sg27
F0.03
sg8
(lp2972
g29
asg30
S'pyridine-3-carbaldehyde'
p2973
sg13
I10371
sg14
F0.6
sg32
F-7.1
sg16
(lp2974
S'aldehyde'
p2975
aS'aromatic'
p2976
aS'heterocyclic'
p2977
asg37
F-7.64
sg38
g39
ssS'mobley_4506634'
p2978
(dp2979
g3
S'[C@@H](C(F)(F)F)(Cl)Br'
p2980
sg25
g26
sg27
F0.02
sg8
(lp2981
S'Renamed mobley_4506634 from 2-bromo-2-chloro-1,1,1-trifluoro-ethane to (2R)-2-bromo-2-chloro-1,1,1-trifluoro-ethane (the name from the 3D structure) since the former did not completely specify stereochemistry.\n'
p2982
asg30
S'2-bromo-2-chloro-1,1,1-trifluoro-ethane'
p2983
sg13
I445258
sg14
F0.6
sg32
F-0.11
sg16
(lp2984
S'alkyl chloride'
p2985
aS'alkyl bromide'
p2986
asg37
F0.7
sg38
g39
ssS'mobley_6430250'
p2987
(dp2988
g3
S'CCCc1ccccc1'
p2989
sg25
g26
sg27
F0.02
sg8
(lp2990
g29
asg30
S'propylbenzene'
p2991
sg13
I7668
sg14
F0.6
sg32
F-0.53
sg16
(lp2992
S'aromatic'
p2993
asg37
F0.01
sg38
g39
ssS'mobley_8685905'
p2994
(dp2995
g3
S'[C@@H](C(F)(F)F)(F)Br'
p2996
sg25
g26
sg27
F0.02
sg8
(lp2997
S'Renamed mobley_8685905 from 2-bromo-1,1,1,2-tetrafluoro-ethane to (2R)-2-bromo-1,1,1,2-tetrafluoro-ethane (the name from the 3D structure) since the former did not completely specify stereochemistry.\n'
p2998
asg30
S'2-bromo-1,1,1,2-tetrafluoro-ethane'
p2999
sg13
I31300
sg14
F0.6
sg32
F0.5
sg16
(lp3000
S'alkyl fluoride'
p3001
aS'alkyl bromide'
p3002
asg37
F0.46
sg38
g39
ssS'mobley_2451097'
p3003
(dp3004
g3
S'c1ccc(cc1)C#N'
p3005
sg25
S'10.1039/P29940001777'
p3006
sg27
F0.02
sg8
(lp3007
g29
asg30
S'benzonitrile'
p3008
sg13
I7505
sg14
F0.6
sg32
F-4.1
sg16
(lp3009
S'carbonitrile'
p3010
aS'aromatic'
p3011
asg37
F-2.56
sg38
g39
ssS'mobley_7943327'
p3012
(dp3013
g3
S'CCC(=O)OCC'
p3014
sg25
g26
sg27
F0.02
sg8
(lp3015
g29
asg30
S'ethyl propanoate'
p3016
sg13
I7749
sg14
F0.6
sg32
F-2.68
sg16
(lp3017
S'carboxylic acid ester'
p3018
asg37
F-3.39
sg38
g39
ssS'mobley_337666'
p3019
(dp3020
g3
S'c1c(c(=O)[nH]c(=O)[nH]1)F'
p3021
sg424
g425
sg426
F0.06
sg8
(lp3022
g29
aS'Changed IUPAC name from 5-flurouracil to 5-fluorouracil for better handling/standardization.'
p3023
asg428
S'5-fluorouracil'
p3024
sg13
I3385
sg430
F0.88
sg431
F-16.92
sg16
(lp3025
S'aryl fluoride'
p3026
aS'oxo(het)arene'
p3027
aS'aromatic'
p3028
aS'heterocyclic'
p3029
asg437
F-16.41
sg438
g439
ssS'mobley_1893937'
p3030
(dp3031
g3
S'CCCCCCCl'
p3032
sg25
g26
sg27
F0.03
sg8
(lp3033
g29
asg30
S'1-chlorohexane'
p3034
sg13
I10992
sg14
F0.6
sg32
F0.0
sg16
(lp3035
S'alkyl chloride'
p3036
asg37
F1.23
sg38
g39
ssS'mobley_1827204'
p3037
(dp3038
g3
S'CCCCCC=O'
p3039
sg25
g26
sg27
F0.02
sg8
(lp3040
g29
asg30
S'hexanal'
p3041
sg13
I6184
sg14
F0.6
sg32
F-2.81
sg16
(lp3042
S'aldehyde'
p3043
asg37
F-2.96
sg38
g39
ssS'mobley_2913224'
p3044
(dp3045
g3
S'CC(=O)Oc1ccccc1C(=O)O'
p3046
sg424
g425
sg426
F0.07
sg8
(lp3047
g29
asg428
S'acetylsalicylic acid'
p3048
sg13
I2244
sg430
F0.18
sg431
F-9.94
sg16
(lp3049
S'carboxylic acid'
p3050
aS'carboxylic acid ester'
p3051
aS'aromatic'
p3052
asg437
F-11.25
sg438
g439
ssS'mobley_5561855'
p3053
(dp3054
g3
S'c1cc(c(c(c1)Cl)c2c(cc(cc2Cl)Cl)Cl)Cl'
p3055
sg215
g216
sg217
F0.04
sg8
(lp3056
g29
asg219
S'1,3,5-trichloro-2-(2,6-dichlorophenyl)benzene'
p3057
sg13
I91662
sg221
F0.1
sg222
F-1.96
sg16
(lp3058
S'aryl chloride'
p3059
aS'aromatic'
p3060
asg225
F-0.54
sg226
g227
ssS'mobley_8723116'
p3061
(dp3062
g3
S'c1cc(ccc1N)Cl'
p3063
sg25
g26
sg27
F0.02
sg8
(lp3064
g29
asg30
S'4-chloroaniline'
p3065
sg13
I7812
sg14
F0.6
sg32
F-5.9
sg16
(lp3066
S'primary amine'
p3067
aS'primary aromatic amine'
p3068
aS'aryl chloride'
p3069
aS'aromatic'
p3070
asg37
F-5.28
sg38
g39
ssS'mobley_2517158'
p3071
(dp3072
g3
S'CCCCCCCBr'
p3073
sg25
g26
sg27
F0.03
sg8
(lp3074
g29
asg30
S'1-bromoheptane'
p3075
sg13
I12369
sg14
F0.6
sg32
F0.34
sg16
(lp3076
S'alkyl bromide'
p3077
asg37
F1.66
sg38
g39
ssS'mobley_6250025'
p3078
(dp3079
g3
S'CCCCCCI'
p3080
sg25
g26
sg27
F0.02
sg8
(lp3081
g29
asg30
S'1-iodohexane'
p3082
sg13
I12527
sg14
F0.6
sg32
F0.08
sg16
(lp3083
S'alkyl iodide'
p3084
asg37
F0.66
sg38
g39
ssS'mobley_4687447'
p3085
(dp3086
g3
S'CCCOCCO'
p3087
sg25
g26
sg27
F0.03
sg8
(lp3088
g29
asg30
S'2-propoxyethanol'
p3089
sg13
I17756
sg14
F0.6
sg32
F-6.4
sg16
(lp3090
S'primary alcohol'
p3091
aS'dialkyl ether'
p3092
asg37
F-4.21
sg38
g39
ssS'mobley_3325209'
p3093
(dp3094
g3
S'COC(c1ccccc1)(OC)OC'
p3095
sg25
g43
sg27
F0.04
sg8
(lp3096
g29
asg30
S'trimethoxymethylbenzene'
p3097
sg13
I69720
sg14
F0.6
sg32
F-4.04
sg16
(lp3098
S'orthocarboxylic acid derivative'
p3099
aS'orthoester'
p3100
aS'aromatic'
p3101
asg37
F-5.83
sg38
g39
ssS'mobley_1875719'
p3102
(dp3103
g3
S'CCC(=O)CC'
p3104
sg5
g6
sg7
F0.1
sg8
(lp3105
g10
asg11
S'pentan-3-one'
p3106
sg13
I7288
sg14
F0.2
sg15
F-3.41
sg16
(lp3107
S'ketone'
p3108
asg19
F-2.7
sg20
g21
ssS'mobley_9112978'
p3109
(dp3110
g3
S'CC/C=C\\C'
p3111
sg25
g26
sg27
F0.02
sg8
(lp3112
S'Renamed mobley_9112978 from pent-2-ene to (Z)-pent-2-ene (the name from the 3D structure) since the former did not completely specify stereochemistry.\n'
p3113
asg30
S'pent-2-ene'
p3114
sg13
I21934815
sg14
F0.6
sg32
F1.31
sg16
(lp3115
S'alkene'
p3116
asg37
F2.55
sg38
g39
ssS'mobley_5692472'
p3117
(dp3118
g3
S'CNC'
p3119
sg25
g26
sg27
F0.02
sg8
(lp3120
g29
asg30
S'N-methylmethanamine'
p3121
sg13
I674
sg14
F0.6
sg32
F-4.29
sg16
(lp3122
S'secondary amine'
p3123
aS'secondary aliphatic amine (dialkylamine)'
p3124
asg37
F-3.11
sg38
g39
ssS'mobley_2972345'
p3125
(dp3126
g3
S'c1ccc2c(c1)Cc3ccccc3C2'
p3127
sg270
g271
sg272
F0.022
sg8
(lp3128
g29
asg274
S'9,10-dihydroanthracene'
p3129
sg13
I11940
sg276
g277
(g281
S'\x9a\x99\x99\x99\x99\x99\xb9?'
p3130
tp3131
Rp3132
sg287
g277
(g281
S'=\n\xd7\xa3p=\x0e\xc0'
p3133
tp3134
Rp3135
sg16
(lp3136
S'aromatic'
p3137
asg295
F-4.38
sg296
g297
ssS'mobley_3976574'
p3138
(dp3139
g3
S'c1cc2c(cc1Cl)Oc3c(c(c(c(c3Cl)Cl)Cl)Cl)O2'
p3140
sg215
g216
sg217
F0.03
sg8
(lp3141
g29
asg219
S'1,2,3,4,7-pentachlorodibenzo-p-dioxin'
p3142
sg13
I38254
sg221
F1.0
sg222
F-4.15
sg16
(lp3143
S'diaryl ether'
p3144
aS'aryl chloride'
p3145
aS'aromatic'
p3146
aS'heterocyclic'
p3147
asg225
F-2.17
sg226
g227
ssS'mobley_8966374'
p3148
(dp3149
g3
S'Cc1cnccn1'
p3150
sg25
g26
sg27
F0.03
sg8
(lp3151
g29
asg30
S'2-methylpyrazine'
p3152
sg13
I7976
sg14
F0.6
sg32
F-5.51
sg16
(lp3153
S'aromatic'
p3154
aS'heterocyclic'
p3155
asg37
F-6.1
sg38
g39
ssS'mobley_5732611'
p3156
(dp3157
g3
S'Cc1c[nH]cn1'
p3158
sg25
S'10.1021/bi00507a030'
p3159
sg27
F0.03
sg8
(lp3160
g29
asg30
S'4-methyl-1H-imidazole'
p3161
sg13
I13195
sg14
F0.6
sg32
F-10.27
sg16
(lp3162
S'aromatic'
p3163
aS'heterocyclic'
p3164
asg37
F-7.99
sg38
g39
ssS'mobley_7298388'
p3165
(dp3166
g3
S'Cc1cccc(c1)[N+](=O)[O-]'
p3167
sg25
g26
sg27
F0.02
sg8
(lp3168
g29
asg30
S'1-methyl-3-nitro-benzene'
p3169
sg13
I7422
sg14
F0.6
sg32
F-3.45
sg16
(lp3170
S'nitro'
p3171
aS'aromatic'
p3172
asg37
F-3.16
sg38
g39
ssS'mobley_3269819'
p3173
(dp3174
g3
S'c1c(cc(c(c1Cl)Cl)Cl)c2cc(c(c(c2Cl)Cl)Cl)Cl'
p3175
sg215
g216
sg217
F0.04
sg8
(lp3176
g29
asg219
S'1,2,3,4-tetrachloro-5-(3,4,5-trichlorophenyl)benzene'
p3177
sg13
I38306
sg221
F0.1
sg222
F-3.17
sg16
(lp3178
S'aryl chloride'
p3179
aS'aromatic'
p3180
asg225
F-0.77
sg226
g227
ssS'mobley_3802803'
p3181
(dp3182
g3
S'CCCCCCON([O-])[O-]'
p3183
sg270
g271
sg272
F0.022
sg8
(lp3184
g29
asg274
S'hexyl nitrate'
p3185
sg13
I30209
sg276
g277
(g281
S'\x9a\x99\x99\x99\x99\x99\xb9?'
p3186
tp3187
Rp3188
sg287
g277
(g281
S'\x8f\xc2\xf5(\\\x8f\xfa\xbf'
p3189
tp3190
Rp3191
sg16
(lp3192
S'anion'
p3193
asg295
F-1.63
sg296
g297
ssS'mobley_7497999'
p3194
(dp3195
g3
S'CC(=O)c1ccccc1'
p3196
sg25
g26
sg27
F0.03
sg8
(lp3197
g29
asg30
S'1-phenylethanone'
p3198
sg13
I7410
sg14
F0.6
sg32
F-4.58
sg16
(lp3199
S'ketone'
p3200
aS'aromatic'
p3201
asg37
F-5.07
sg38
g39
ssS'mobley_8208692'
p3202
(dp3203
g3
S'c1c(c(c(c(c1Cl)Cl)Cl)Cl)c2c(cc(c(c2Cl)Cl)Cl)Cl'
p3204
sg215
g216
sg217
F0.05
sg8
(lp3205
g29
asg219
S'1,2,3,4-tetrachloro-5-(2,3,4,6-tetrachlorophenyl)benzene'
p3206
sg13
I39253
sg221
F0.25
sg222
F-4.61
sg16
(lp3207
S'aryl chloride'
p3208
aS'aromatic'
p3209
asg225
F0.0
sg226
g227
ssS'mobley_1199854'
p3210
(dp3211
g3
S'CCCI'
p3212
sg25
g26
sg27
F0.02
sg8
(lp3213
g29
asg30
S'1-iodopropane'
p3214
sg13
I33643
sg14
F0.6
sg32
F-0.53
sg16
(lp3215
S'alkyl iodide'
p3216
asg37
F0.0
sg38
g39
ssS'mobley_3867265'
p3217
(dp3218
g3
S'CC(=O)C'
p3219
sg25
g26
sg27
F0.02
sg8
(lp3220
g29
asg30
S'acetone'
p3221
sg13
I180
sg14
F0.6
sg32
F-3.8
sg16
(lp3222
S'ketone'
p3223
asg37
F-3.36
sg38
g39
ssS'mobley_5072416'
p3224
(dp3225
g3
S'COc1ccccc1N'
p3226
sg25
g26
sg27
F0.03
sg8
(lp3227
g29
asg30
S'2-methoxyaniline'
p3228
sg13
I7000
sg14
F0.6
sg32
F-6.12
sg16
(lp3229
S'alkyl aryl ether'
p3230
aS'primary amine'
p3231
aS'primary aromatic amine'
p3232
aS'aromatic'
p3233
asg37
F-6.53
sg38
g39
ssS'mobley_2489709'
p3234
(dp3235
g3
S'c1ccc(c(c1)Cl)Cl'
p3236
sg25
g26
sg27
F0.02
sg8
(lp3237
g29
asg30
S'1,2-dichlorobenzene'
p3238
sg13
I7239
sg14
F0.6
sg32
F-1.36
sg16
(lp3239
S'aryl chloride'
p3240
aS'aromatic'
p3241
asg37
F-0.64
sg38
g39
ssS'mobley_2481002'
p3242
(dp3243
g3
S'C([N+](=O)[O-])(Cl)(Cl)Cl'
p3244
sg183
g184
sg185
F0.02
sg8
(lp3245
g29
aS'Changed IUPAC name from chloropicrin to trichloro(nitro)methane for better handling/standardization.'
p3246
asg187
S'trichloro(nitro)methane'
p3247
sg13
I6423
sg189
F0.1
sg190
F-1.45
sg16
(lp3248
S'halogen derivative'
p3249
asg193
F-0.26
sg194
g195
ssS'mobley_1034539'
p3250
(dp3251
g3
S'c1cc(c(cc1c2cc(c(c(c2Cl)Cl)Cl)Cl)Cl)Cl'
p3252
sg215
g216
sg217
F0.04
sg8
(lp3253
g29
asg219
S'1,2,3,4-tetrachloro-5-(3,4-dichlorophenyl)benzene'
p3254
sg13
I38019
sg221
F0.1
sg222
F-3.04
sg16
(lp3255
S'aryl chloride'
p3256
aS'aromatic'
p3257
asg225
F-1.0
sg226
g227
ssS'mobley_9460824'
p3258
(dp3259
g3
S'CCOP(=S)(OCC)SCSCC'
p3260
sg183
g184
sg185
F0.04
sg8
(lp3261
g29
aS'Changed IUPAC name from phorate to diethoxy-(ethylsulfanylmethylsulfanyl)-thioxo-$l^{5}-phosphane for better handling/standardization.'
p3262
asg187
S'diethoxy-(ethylsulfanylmethylsulfanyl)-thioxo-$l^{5}-phosphane'
p3263
sg13
I4790
sg189
F0.1
sg190
F-4.37
sg16
(lp3264
S'thiophosphoric acid ester'
p3265
asg193
F-5.2
sg194
g195
ssS'mobley_8882696'
p3266
(dp3267
g3
S'C1CCOC1'
p3268
sg25
g26
sg27
F0.02
sg8
(lp3269
g29
asg30
S'tetrahydrofuran'
p3270
sg13
I8028
sg14
F0.6
sg32
F-3.47
sg16
(lp3271
S'dialkyl ether'
p3272
aS'heterocyclic'
p3273
asg37
F-2.07
sg38
g39
ssS'mobley_8916409'
p3274
(dp3275
g3
S'CCOC(=O)C[C@H](C(=O)OCC)SP(=S)(OC)OC'
p3276
sg183
g184
sg185
F0.05
sg8
(lp3277
g29
aS'Changed IUPAC name from malathion to diethyl (2R)-2-dimethoxyphosphinothioylsulfanylbutanedioate for better handling/standardization.'
p3278
asg187
S'diethyl (2R)-2-dimethoxyphosphinothioylsulfanylbutanedioate'
p3279
sg13
I12358970
sg189
F0.21
sg190
F-8.15
sg16
(lp3280
S'carboxylic acid ester'
p3281
aS'thiophosphoric acid ester'
p3282
asg193
F-12.99
sg194
g195
ssS'mobley_1770205'
p3283
(dp3284
g3
S'COP(=S)(OC)SCn1c(=O)c2ccccc2nn1'
p3285
sg183
g184
sg185
F0.04
sg8
(lp3286
g29
aS'Changed IUPAC name from azinphosmethyl to 3-(dimethoxyphosphinothioylsulfanylmethyl)-1,2,3-benzotriazin-4-one for better handling/standardization.'
p3287
asg187
S'3-(dimethoxyphosphinothioylsulfanylmethyl)-1,2,3-benzotriazin-4-one'
p3288
sg13
I2268
sg189
F1.37
sg190
F-10.03
sg16
(lp3289
S'oxo(het)arene'
p3290
aS'thiophosphoric acid ester'
p3291
aS'aromatic'
p3292
aS'heterocyclic'
p3293
asg193
F-15.54
sg194
g195
ssS'mobley_2782339'
p3294
(dp3295
g3
S'c1ccc2c(c1)C(=O)NC2=O'
p3296
sg424
g425
sg426
F0.05
sg8
(lp3297
g29
asg428
S'phthalimide'
p3298
sg13
I6809
sg430
F0.5
sg431
F-9.61
sg16
(lp3299
S'carboxylic acid imide, N-unsubstituted'
p3300
aS'aromatic'
p3301
aS'heterocyclic'
p3302
asg437
F-11.74
sg438
g439
ssS'mobley_3982371'
p3303
(dp3304
g3
S'CC(=O)OC'
p3305
sg25
g26
sg27
F0.02
sg8
(lp3306
g29
asg30
S'methyl acetate'
p3307
sg13
I6584
sg14
F0.6
sg32
F-3.13
sg16
(lp3308
S'carboxylic acid ester'
p3309
asg37
F-3.73
sg38
g39
ssS'mobley_2659552'
p3310
(dp3311
g3
S'Cc1ccc(cc1)C(=O)N(C)C'
p3312
sg1245
g1246
sg1247
F0.05
sg1248
(lp3313
g1250
ag29
ag169
asg1251
S'N,N-4-trimethylbenzamide'
p3314
sg13
I84179
sg14
F0.2
sg1253
F-9.76
sg16
(lp3315
S'tertiary carboxylic acid amide'
p3316
aS'aromatic'
p3317
asg1256
F-8.76
sg1257
g1246
ssS'mobley_2422586'
p3318
(dp3319
g3
S'CCCOC'
p3320
sg25
g26
sg27
F0.02
sg8
(lp3321
g29
asg30
S'1-methoxypropane'
p3322
sg13
I11182
sg14
F0.6
sg32
F-1.66
sg16
(lp3323
S'dialkyl ether'
p3324
asg37
F-0.41
sg38
g39
ssS'mobley_2725215'
p3325
(dp3326
g3
S'CCCN(CCC)c1c(cc(cc1[N+](=O)[O-])S(=O)(=O)C)[N+](=O)[O-]'
p3327
sg183
g184
sg185
F0.05
sg8
(lp3328
g29
asg187
S'nitralin'
p3329
sg13
I20848
sg189
F1.93
sg190
F-7.98
sg16
(lp3330
S'tertiary amine'
p3331
aS'tertiary aliphatic/aromatic amine (alkylarylamine)'
p3332
aS'nitro'
p3333
aS'sulfone'
p3334
aS'aromatic'
p3335
asg193
F-11.56
sg194
g195
ssS'mobley_9571888'
p3336
(dp3337
g3
S'C1[C@@H]2[C@H](COS(=O)O1)[C@@]3(C(=C([C@]2(C3(Cl)Cl)Cl)Cl)Cl)Cl'
p3338
sg183
g184
sg185
F0.04
sg8
(lp3339
g29
asg187
S'endosulfan alpha'
p3340
sg13
I12309460
sg189
F0.26
sg190
F-4.23
sg16
(lp3341
S'alkyl chloride'
p3342
aS'alkene'
p3343
aS'heterocyclic'
p3344
asg193
F-9.96
sg194
g195
ssS'mobley_3777264'
p3345
(dp3346
g3
S'c1cc(cc(c1)[N+](=O)[O-])N'
p3347
sg25
g26
sg27
F0.03
sg8
(lp3348
g29
asg30
S'3-nitroaniline'
p3349
sg13
I7423
sg14
F0.6
sg32
F-8.84
sg16
(lp3350
S'primary amine'
p3351
aS'primary aromatic amine'
p3352
aS'nitro'
p3353
aS'aromatic'
p3354
asg37
F-8.24
sg38
g39
ssS'mobley_6006813'
p3355
(dp3356
g3
S'CCCC[N+](=O)[O-]'
p3357
sg25
g26
sg27
F0.02
sg8
(lp3358
g29
asg30
S'1-nitrobutane'
p3359
sg13
I12302
sg14
F0.6
sg32
F-3.09
sg16
(lp3360
S'nitro'
p3361
asg37
F-1.51
sg38
g39
ssS'mobley_1636752'
p3362
(dp3363
g3
S'CO'
p3364
sg25
g26
sg27
F0.01
sg8
(lp3365
g29
asg30
S'methanol'
p3366
sg13
I887
sg14
F0.6
sg32
F-5.1
sg16
(lp3367
S'primary alcohol'
p3368
asg37
F-3.48
sg38
g39
ssS'mobley_3525176'
p3369
(dp3370
g3
S'CCCCCc1ccccc1'
p3371
sg25
g26
sg27
F0.03
sg8
(lp3372
g29
asg30
S'pentylbenzene'
p3373
sg13
I10864
sg14
F0.6
sg32
F-0.23
sg16
(lp3374
S'aromatic'
p3375
asg37
F0.05
sg38
g39
ssS'mobley_1905088'
p3376
(dp3377
g3
S'c1ccc(cc1)CBr'
p3378
sg1245
g1246
sg1247
F0.1
sg1248
(lp3379
g1250
ag29
ag169
asg1251
S'benzyl bromide'
p3380
sg13
I7498
sg14
F0.2
sg1253
F-2.38
sg16
(lp3381
S'alkyl bromide'
p3382
aS'aromatic'
p3383
asg1256
F-1.11
sg1257
g1246
ssS'mobley_637522'
p3384
(dp3385
g3
S'c1ccc2cc3ccccc3cc2c1'
p3386
sg25
g26
sg27
F0.03
sg8
(lp3387
g29
asg30
S'anthracene'
p3388
sg13
I8418
sg14
F0.6
sg32
F-3.95
sg16
(lp3389
S'aromatic'
p3390
asg37
F-5.39
sg38
g39
ssS'mobley_1615431'
p3391
(dp3392
g3
S'CC(C)OC(C)C'
p3393
sg25
g26
sg27
F0.02
sg8
(lp3394
g29
asg30
S'2-isopropoxypropane'
p3395
sg13
I7914
sg14
F0.6
sg32
F-0.53
sg16
(lp3396
S'dialkyl ether'
p3397
asg37
F-0.11
sg38
g39
ssS'mobley_9281946'
p3398
(dp3399
g3
S'CCOP(=S)(OCC)Oc1ccc(cc1)[N+](=O)[O-]'
p3400
sg183
g184
sg185
F0.04
sg8
(lp3401
g29
aS'Changed IUPAC name from parathion to diethoxy-(4-nitrophenoxy)-thioxo-$l^{5}-phosphane for better handling/standardization.'
p3402
asg187
S'diethoxy-(4-nitrophenoxy)-thioxo-$l^{5}-phosphane'
p3403
sg13
I991
sg189
F0.1
sg190
F-6.74
sg16
(lp3404
S'nitro'
p3405
aS'thiophosphoric acid ester'
p3406
aS'aromatic'
p3407
asg193
F-9.41
sg194
g195
ssS'mobley_1469079'
p3408
(dp3409
g3
S'c1ccc2c(c1)Oc3cc(c(cc3O2)Cl)Cl'
p3410
sg215
g216
sg217
F0.02
sg8
(lp3411
g29
asg219
S'2,3-dichlorodibenzo-p-dioxin'
p3412
sg13
I34586
sg221
F1.0
sg222
F-3.56
sg16
(lp3413
S'diaryl ether'
p3414
aS'aryl chloride'
p3415
aS'aromatic'
p3416
aS'heterocyclic'
p3417
asg225
F-3.51
sg226
g227
ssS'mobley_4603202'
p3418
(dp3419
g3
S'C(CCl)OCCCl'
p3420
sg1245
g1246
sg1247
F0.01
sg1248
(lp3421
g1250
ag29
aS'Changed IUPAC name from bis-2-chloroethyl ether to 1-chloro-2-(2-chloroethoxy)ethane for better handling/standardization.'
p3422
ag169
asg1251
S'1-chloro-2-(2-chloroethoxy)ethane'
p3423
sg13
I8115
sg14
F0.2
sg1253
F-4.23
sg16
(lp3424
S'dialkyl ether'
p3425
aS'alkyl chloride'
p3426
asg1256
F-2.07
sg1257
g1246
ssS'mobley_2341732'
p3427
(dp3428
g3
S'CCCCC(=O)OC'
p3429
sg25
g26
sg27
F0.02
sg8
(lp3430
g29
asg30
S'methyl pentanoate'
p3431
sg13
I12206
sg14
F0.6
sg32
F-2.56
sg16
(lp3432
S'carboxylic acid ester'
p3433
asg37
F-3.51
sg38
g39
ssS'mobley_6981465'
p3434
(dp3435
g3
S'CC(C)OC(=O)C'
p3436
sg25
g26
sg27
F0.03
sg8
(lp3437
g29
asg30
S'isopropyl acetate'
p3438
sg13
I7915
sg14
F0.6
sg32
F-2.64
sg16
(lp3439
S'carboxylic acid ester'
p3440
asg37
F-2.92
sg38
g39
ssS'mobley_1527293'
p3441
(dp3442
g3
S'C[C@@H](c1ccc(c(c1)F)c2ccccc2)C(=O)O'
p3443
sg424
g425
sg426
F0.07
sg8
(lp3444
S'Renamed mobley_1527293 from flurbiprofen to (2S)-2-(3-fluoro-4-phenyl-phenyl)propanoic acid (the name from the 3D structure) since the former did not completely specify stereochemistry.\n'
p3445
asg428
S'flurbiprofen'
p3446
sg13
I3394
sg430
F0.16
sg431
F-8.42
sg16
(lp3447
S'aryl fluoride'
p3448
aS'carboxylic acid'
p3449
aS'aromatic'
p3450
asg437
F-8.7
sg438
g439
ssS'mobley_3425174'
p3451
(dp3452
g3
S'C(F)Cl'
p3453
sg25
g26
sg27
F0.01
sg8
(lp3454
g29
asg30
S'chloro-fluoro-methane'
p3455
sg13
I11643
sg14
F0.6
sg32
F-0.77
sg16
(lp3456
S'alkyl fluoride'
p3457
aS'alkyl chloride'
p3458
asg37
F-0.22
sg38
g39
ssS'mobley_5393242'
p3459
(dp3460
g3
S'CCOP(=S)(OCC)Oc1cc(nc(n1)C(C)C)C'
p3461
sg183
g184
sg185
F0.05
sg8
(lp3462
g29
asg187
S'diazinon'
p3463
sg13
I3017
sg189
F0.13
sg190
F-6.48
sg16
(lp3464
S'thiophosphoric acid ester'
p3465
aS'aromatic'
p3466
aS'heterocyclic'
p3467
asg193
F-9.97
sg194
g195
ssS'mobley_9624458'
p3468
(dp3469
g3
S'C(CCl)CCl'
p3470
sg25
g26
sg27
F0.02
sg8
(lp3471
g29
asg30
S'1,3-dichloropropane'
p3472
sg13
I8881
sg14
F0.6
sg32
F-1.89
sg16
(lp3473
S'alkyl chloride'
p3474
asg37
F-0.38
sg38
g39
ssS'mobley_2316618'
p3475
(dp3476
g3
S'c1ccc2c(c1)C(=O)c3cccc(c3C2=O)NCCO'
p3477
sg270
g271
sg272
F0.029
sg8
(lp3478
g29
asg274
S'1-(2-hydroxyethylamino)-9,10-anthraquinone'
p3479
sg13
I20528
sg276
g277
(g281
S'\x9a\x99\x99\x99\x99\x99\xf1?'
p3480
tp3481
Rp3482
sg287
g277
(g281
S'\xecQ\xb8\x1e\x85k,\xc0'
p3483
tp3484
Rp3485
sg16
(lp3486
S'ketone'
p3487
aS'primary alcohol'
p3488
aS'1,2-aminoalcohol'
p3489
aS'secondary amine'
p3490
aS'secondary aliphatic/aromatic amine (alkylarylamine)'
p3491
aS'aromatic'
p3492
asg295
F-13.33
sg296
g297
ssS'mobley_349850'
p3493
(dp3494
g3
S'Cc1ccc(cc1)C(=O)C'
p3495
sg25
g26
sg27
F0.03
sg8
(lp3496
g29
asg30
S'1-(p-tolyl)ethanone'
p3497
sg13
I8500
sg14
F0.6
sg32
F-4.7
sg16
(lp3498
S'ketone'
p3499
aS'aromatic'
p3500
asg37
F-4.82
sg38
g39
ssS'mobley_186894'
p3501
(dp3502
g3
S'CCCS'
p3503
sg5
g6
sg7
F0.1
sg8
(lp3504
g10
asg11
S'propanethiol'
p3505
sg13
I7848
sg14
F0.2
sg15
F-1.1
sg16
(lp3506
S'thiol (sulfanyl)'
p3507
aS'alkylthiol'
p3508
asg19
F-0.3
sg20
g21
ssS'mobley_7463408'
p3509
(dp3510
g3
S'CCC(=O)Nc1ccc(c(c1)Cl)Cl'
p3511
sg183
g184
sg185
F0.04
sg8
(lp3512
g29
aS'Changed IUPAC name from propanil to N-(3,4-dichlorophenyl)propanimidic acid for better handling/standardization.'
p3513
asg187
S'N-(3,4-dichlorophenyl)propanimidic acid'
p3514
sg13
I4933
sg189
F1.93
sg190
F-7.78
sg16
(lp3515
S'aryl chloride'
p3516
aS'secondary carboxylic acid amide'
p3517
aS'aromatic'
p3518
asg193
F-9.65
sg194
g195
ssS'mobley_5627459'
p3519
(dp3520
g3
S'CC(C)C=O'
p3521
sg25
g26
sg27
F0.02
sg8
(lp3522
g29
asg30
S'2-methylpropanal'
p3523
sg13
I6561
sg14
F0.6
sg32
F-2.86
sg16
(lp3524
S'aldehyde'
p3525
asg37
F-2.93
sg38
g39
ssS'mobley_5123639'
p3526
(dp3527
g3
S'C[C@H](CC(C)C)O'
p3528
sg25
g26
sg27
F0.02
sg8
(lp3529
g29
asg30
S'4-methylpentan-2-ol'
p3530
sg13
I7910
sg14
F0.6
sg32
F-3.73
sg16
(lp3531
S'secondary alcohol'
p3532
asg37
F-2.75
sg38
g39
ssS'mobley_2049967'
p3533
(dp3534
g3
S'CCSC'
p3535
sg5
g6
sg7
F0.1
sg8
(lp3536
g10
aS'Changed IUPAC name from ethylmethylsulfide to methylsulfanylethane for better handling/standardization.'
p3537
asg11
S'methylsulfanylethane'
p3538
sg13
I12230
sg14
F0.2
sg15
F-1.5
sg16
(lp3539
S'thioether'
p3540
asg19
F-0.3
sg20
g21
ssS'mobley_4759887'
p3541
(dp3542
g3
S'CCCCCCCI'
p3543
sg25
g26
sg27
F0.03
sg8
(lp3544
g29
asg30
S'1-iodoheptane'
p3545
sg13
I20274
sg14
F0.6
sg32
F0.27
sg16
(lp3546
S'alkyl iodide'
p3547
asg37
F1.19
sg38
g39
ssS'mobley_4395315'
p3548
(dp3549
g3
S'Cc1cc(ccc1Cl)O'
p3550
sg25
g26
sg27
F0.03
sg8
(lp3551
g29
asg30
S'4-chloro-3-methyl-phenol'
p3552
sg13
I1732
sg14
F0.6
sg32
F-6.79
sg16
(lp3553
S'phenol or hydroxyhetarene'
p3554
aS'aryl chloride'
p3555
aS'aromatic'
p3556
asg37
F-4.9
sg38
g39
ssS'mobley_4219614'
p3557
(dp3558
g3
S'c1cc(c(c(c1Cl)Cl)Cl)Cl'
p3559
sg25
g26
sg27
F0.02
sg8
(lp3560
g29
asg30
S'1,2,3,4-tetrachlorobenzene'
p3561
sg13
I12463
sg14
F0.6
sg32
F-1.34
sg16
(lp3562
S'aryl chloride'
p3563
aS'aromatic'
p3564
asg37
F-0.32
sg38
g39
ssS'mobley_511661'
p3565
(dp3566
g3
S'C=CC=C'
p3567
sg5
S'10.1021/jo00891a006'
p3568
sg7
F0.1
sg8
(lp3569
g10
asg11
S'butadiene'
p3570
sg13
I7845
sg14
F0.2
sg15
F0.56
sg16
(lp3571
S'alkene'
p3572
asg19
F1.9
sg20
g21
ssS'mobley_4463913'
p3573
(dp3574
g3
S'CC(OC(=O)C)OC(=O)C'
p3575
sg25
g1202
sg27
F0.1
sg8
(lp3576
g29
asg30
S'1-acetoxyethyl acetate'
p3577
sg13
I222536
sg14
F0.6
sg32
F-4.97
sg16
(lp3578
S'carboxylic acid ester'
p3579
asg37
F-7.9
sg38
g39
ssS'mobley_6632459'
p3580
(dp3581
g3
S'CCC=O'
p3582
sg25
g26
sg27
F0.02
sg8
(lp3583
g29
asg30
S'propanal'
p3584
sg13
I527
sg14
F0.6
sg32
F-3.43
sg16
(lp3585
S'aldehyde'
p3586
asg37
F-3.08
sg38
g39
ssS'mobley_2183616'
p3587
(dp3588
g3
S'CC[C@H](C)c1ccccc1'
p3589
sg25
g26
sg27
F0.03
sg8
(lp3590
S'Renamed mobley_2183616 from sec-butylbenzene to [(1S)-1-methylpropyl]benzene (the name from the 3D structure) since the former did not completely specify stereochemistry.\n'
p3591
asg30
S'sec-butylbenzene'
p3592
sg13
I8680
sg14
F0.6
sg32
F-0.45
sg16
(lp3593
S'aromatic'
p3594
asg37
F0.04
sg38
g39
ssS'mobley_6416775'
p3595
(dp3596
g3
S'CCCC1CCCC1'
p3597
sg25
g26
sg27
F0.02
sg8
(lp3598
g29
asg30
S'propylcyclopentane'
p3599
sg13
I16270
sg14
F0.6
sg32
F2.13
sg16
(lp3600
S''
p3601
asg37
F2.15
sg38
g39
ssS'mobley_902954'
p3602
(dp3603
g3
S'CCCCO[N+](=O)[O-]'
p3604
sg183
g184
sg185
F0.02
sg8
(lp3605
g29
asg187
S'butyl nitrate'
p3606
sg13
I13567
sg189
F0.1
sg190
F-2.09
sg16
(lp3607
S'nitrate'
p3608
asg193
F-1.83
sg194
g195
ssS'mobley_7463799'
p3609
(dp3610
g3
S'c1ccc(cc1)CCCO'
p3611
sg25
g26
sg27
F0.03
sg8
(lp3612
g29
asg30
S'3-phenylpropan-1-ol'
p3613
sg13
I31234
sg14
F0.6
sg32
F-6.92
sg16
(lp3614
S'primary alcohol'
p3615
aS'aromatic'
p3616
asg37
F-5.5
sg38
g39
ssS'mobley_3969312'
p3617
(dp3618
g3
S'c1ccc(cc1)C=O'
p3619
sg25
g26
sg27
F0.02
sg8
(lp3620
g29
asg30
S'benzaldehyde'
p3621
sg13
I240
sg14
F0.6
sg32
F-4.02
sg16
(lp3622
S'aldehyde'
p3623
aS'aromatic'
p3624
asg37
F-4.99
sg38
g39
ssS'mobley_6248915'
p3625
(dp3626
g3
S'CCCCCCCCN'
p3627
sg25
g26
sg27
F0.03
sg8
(lp3628
g29
asg30
S'octan-1-amine'
p3629
sg13
I8143
sg14
F0.6
sg32
F-3.65
sg16
(lp3630
S'primary amine'
p3631
aS'primary aliphatic amine (alkylamine)'
p3632
asg37
F-2.38
sg38
g39
ssS'mobley_1881249'
p3633
(dp3634
g3
S'CCCC(=O)C'
p3635
sg25
g26
sg27
F0.02
sg8
(lp3636
g29
asg30
S'pentan-2-one'
p3637
sg13
I7895
sg14
F0.6
sg32
F-3.52
sg16
(lp3638
S'ketone'
p3639
asg37
F-3.29
sg38
g39
ssS'mobley_8449031'
p3640
(dp3641
g3
S'CCN(CC)CC'
p3642
sg25
g26
sg27
F0.03
sg8
(lp3643
g29
asg30
S'N,N-diethylethanamine'
p3644
sg13
I8471
sg14
F0.6
sg32
F-3.22
sg16
(lp3645
S'tertiary amine'
p3646
aS'tertiary aliphatic amine (trialkylamine)'
p3647
asg37
F-1.83
sg38
g39
ssS'mobley_5467162'
p3648
(dp3649
g3
S'CC(C)(C)c1ccc(cc1)O'
p3650
sg25
g26
sg27
F0.04
sg8
(lp3651
g29
asg30
S'4-tert-butylphenol'
p3652
sg13
I7393
sg14
F0.6
sg32
F-5.91
sg16
(lp3653
S'phenol or hydroxyhetarene'
p3654
aS'aromatic'
p3655
asg37
F-5.54
sg38
g39
ssS'mobley_6522117'
p3656
(dp3657
g3
S'CCOP(=O)(OCC)O/C(=C/Cl)/c1ccc(cc1Cl)Cl'
p3658
sg183
g184
sg185
F0.05
sg8
(lp3659
S'Renamed mobley_6522117 from 2-chloro-1-(2,4-dichlorophenyl)ethenyl diethyl phosphate to [(E)-2-chloro-1-(2,4-dichlorophenyl)vinyl] diethyl phosphate (the name from the 3D structure) since the former did not completely specify stereochemistry.\n'
p3660
asg187
S'2-chloro-1-(2,4-dichlorophenyl)ethenyl diethyl phosphate'
p3661
sg13
I10107
sg189
F1.37
sg190
F-7.07
sg16
(lp3662
S'aryl chloride'
p3663
aS'phosphoric acid ester'
p3664
aS'alkene'
p3665
aS'aromatic'
p3666
asg193
F-9.45
sg194
g195
ssS'mobley_7977115'
p3667
(dp3668
g3
S'CCC[C@H](CC)O'
p3669
sg25
g26
sg27
F0.02
sg8
(lp3670
S'Renamed mobley_7977115 from hexan-3-ol to (3S)-hexan-3-ol (the name from the 3D structure) since the former did not completely specify stereochemistry.\n'
p3671
asg30
S'hexan-3-ol'
p3672
sg13
I12178
sg14
F0.6
sg32
F-4.06
sg16
(lp3673
S'secondary alcohol'
p3674
asg37
F-2.63
sg38
g39
ssS'mobley_8809274'
p3675
(dp3676
g3
S'c1ccc(cc1)C(F)(F)F'
p3677
sg25
g26
sg27
F0.02
sg8
(lp3678
g29
asg30
S'trifluoromethylbenzene'
p3679
sg13
I7368
sg14
F0.6
sg32
F-0.25
sg16
(lp3680
S'halogen derivative'
p3681
aS'aromatic'
p3682
asg37
F-0.55
sg38
g39
ssS'mobley_5063386'
p3683
(dp3684
g3
S'c1ccc(c(c1)[N+](=O)[O-])O'
p3685
sg25
g26
sg27
F0.03
sg8
(lp3686
g29
asg30
S'2-nitrophenol'
p3687
sg13
I6947
sg14
F0.6
sg32
F-4.58
sg16
(lp3688
S'phenol or hydroxyhetarene'
p3689
aS'nitro'
p3690
aS'aromatic'
p3691
asg37
F-5.34
sg38
g39
ssS'mobley_2958326'
p3692
(dp3693
g3
S'CCCNCCC'
p3694
sg25
g26
sg27
F0.02
sg8
(lp3695
g29
asg30
S'N-propylpropan-1-amine'
p3696
sg13
I8902
sg14
F0.6
sg32
F-3.65
sg16
(lp3697
S'secondary amine'
p3698
aS'secondary aliphatic amine (dialkylamine)'
p3699
asg37
F-2.26
sg38
g39
ssS'mobley_8052240'
p3700
(dp3701
g3
S'c1ccc2c(c1)C(=O)c3cccc(c3C2=O)N'
p3702
sg270
g271
sg272
F0.022
sg8
(lp3703
g29
asg274
S'1-amino-9,10-anthracenedione'
p3704
sg13
I6710
sg276
g277
(g281
S'\xaeG\xe1z\x14\xae\xe7?'
p3705
tp3706
Rp3707
sg287
g277
(g281
S'\xe1z\x14\xaeG\xe1"\xc0'
p3708
tp3709
Rp3710
sg16
(lp3711
S'ketone'
p3712
aS'primary amine'
p3713
aS'primary aromatic amine'
p3714
aS'aromatic'
p3715
asg295
F-11.59
sg296
g297
ssS'mobley_590519'
p3716
(dp3717
g3
S'CCSSCC'
p3718
sg25
g26
sg27
F0.02
sg8
(lp3719
g29
asg30
S'ethyldisulfanylethane'
p3720
sg13
I8077
sg14
F0.6
sg32
F-1.64
sg16
(lp3721
S'disulfide'
p3722
asg37
F-0.07
sg38
g39
ssS'mobley_6309289'
p3723
(dp3724
g3
S'C1CCNCC1'
p3725
sg25
g26
sg27
F0.02
sg8
(lp3726
g29
asg30
S'piperidine'
p3727
sg13
I8082
sg14
F0.6
sg32
F-5.11
sg16
(lp3728
S'secondary amine'
p3729
aS'secondary aliphatic amine (dialkylamine)'
p3730
aS'heterocyclic'
p3731
asg37
F-3.46
sg38
g39
ssS'mobley_4059279'
p3732
(dp3733
g3
S'CN1CCN(CC1)C'
p3734
sg25
g1202
sg27
F0.03
sg8
(lp3735
g29
asg30
S'1,4-dimethylpiperazine'
p3736
sg13
I7818
sg14
F0.6
sg32
F-7.58
sg16
(lp3737
S'tertiary amine'
p3738
aS'tertiary aliphatic amine (trialkylamine)'
p3739
aS'heterocyclic'
p3740
asg37
F-7.4
sg38
g39
ssS'mobley_9733743'
p3741
(dp3742
g3
S'CCCCN'
p3743
sg25
g26
sg27
F0.02
sg8
(lp3744
g29
asg30
S'butan-1-amine'
p3745
sg13
I8007
sg14
F0.6
sg32
F-4.24
sg16
(lp3746
S'primary amine'
p3747
aS'primary aliphatic amine (alkylamine)'
p3748
asg37
F-2.82
sg38
g39
ssS'mobley_252413'
p3749
(dp3750
g3
S'CCCC(C)(C)C'
p3751
sg25
g26
sg27
F0.02
sg8
(lp3752
g29
asg30
S'2,2-dimethylpentane'
p3753
sg13
I11542
sg14
F0.6
sg32
F2.88
sg16
(lp3754
S''
p3755
asg37
F2.9
sg38
g39
ssS'mobley_1144156'
p3756
(dp3757
g3
S'CCOCC'
p3758
sg25
g26
sg27
F0.02
sg8
(lp3759
g29
asg30
S'ethoxyethane'
p3760
sg13
I3283
sg14
F0.6
sg32
F-1.59
sg16
(lp3761
S'dialkyl ether'
p3762
asg37
F-0.7
sg38
g39
ssS'mobley_2972906'
p3763
(dp3764
g3
S'c1ccsc1'
p3765
sg5
g6
sg7
F0.1
sg8
(lp3766
g10
asg11
S'thiophene'
p3767
sg13
I8030
sg14
F0.2
sg15
F-1.4
sg16
(lp3768
S'aromatic'
p3769
aS'heterocyclic'
p3770
asg19
F-0.6
sg20
g21
ssS'mobley_3266352'
p3771
(dp3772
g3
S'CN(CC(F)(F)F)c1ccccc1'
p3773
sg25
S'10.1139/v93-262'
p3774
sg27
F0.03
sg8
(lp3775
g29
asg30
S'N-methyl-N-(2,2,2-trifluoroethyl)aniline'
p3776
sg13
I13238893
sg14
F0.6
sg32
F-1.92
sg16
(lp3777
S'tertiary amine'
p3778
aS'tertiary aliphatic/aromatic amine (alkylarylamine)'
p3779
aS'halogen derivative'
p3780
aS'aromatic'
p3781
asg37
F-3.69
sg38
g39
ssS'mobley_1231151'
p3782
(dp3783
g3
S'CC(C)Cl'
p3784
sg25
g26
sg27
F0.02
sg8
(lp3785
g29
asg30
S'2-chloropropane'
p3786
sg13
I6361
sg14
F0.6
sg32
F-0.25
sg16
(lp3787
S'alkyl chloride'
p3788
asg37
F0.82
sg38
g39
ssS'mobley_4035953'
p3789
(dp3790
g3
S'Cc1ccccc1O'
p3791
sg5
g6
sg7
F0.1
sg8
(lp3792
g10
asg11
S'o-cresol'
p3793
sg13
I335
sg14
F0.2
sg15
F-5.9
sg16
(lp3794
S'phenol or hydroxyhetarene'
p3795
aS'aromatic'
p3796
asg19
F-5.0
sg20
g21
ssS'mobley_299266'
p3797
(dp3798
g3
S'CC(=C)C'
p3799
sg25
g26
sg27
F0.02
sg8
(lp3800
g29
asg30
S'2-methylprop-1-ene'
p3801
sg13
I8255
sg14
F0.6
sg32
F1.16
sg16
(lp3802
S'alkene'
p3803
asg37
F2.34
sg38
g39
ssS'mobley_7774695'
p3804
(dp3805
g3
S'CNc1ccccc1'
p3806
sg25
g26
sg27
F0.03
sg8
(lp3807
g29
asg30
S'N-methylaniline'
p3808
sg13
I7515
sg14
F0.6
sg32
F-4.69
sg16
(lp3809
S'secondary amine'
p3810
aS'secondary aliphatic/aromatic amine (alkylarylamine)'
p3811
aS'aromatic'
p3812
asg37
F-5.74
sg38
g39
ssS'mobley_7066554'
p3813
(dp3814
g3
S'c1cc(ccc1O)Cl'
p3815
sg25
g26
sg27
F0.02
sg8
(lp3816
g29
asg30
S'4-chlorophenol'
p3817
sg13
I4684
sg14
F0.6
sg32
F-7.03
sg16
(lp3818
S'phenol or hydroxyhetarene'
p3819
aS'aryl chloride'
p3820
aS'aromatic'
p3821
asg37
F-5.36
sg38
g39
ssS'mobley_1967551'
p3822
(dp3823
g3
S'CC=O'
p3824
sg25
g26
sg27
F0.02
sg8
(lp3825
g29
asg30
S'acetaldehyde'
p3826
sg13
I177
sg14
F0.6
sg32
F-3.5
sg16
(lp3827
S'aldehyde'
p3828
asg37
F-3.39
sg38
g39
ssS'mobley_7326982'
p3829
(dp3830
g3
S'CC(C)O'
p3831
sg25
g26
sg27
F0.02
sg8
(lp3832
g29
asg30
S'propan-2-ol'
p3833
sg13
I3776
sg14
F0.6
sg32
F-4.74
sg16
(lp3834
S'secondary alcohol'
p3835
asg37
F-3.28
sg38
g39
ssS'mobley_7009711'
p3836
(dp3837
g3
S'Cc1cc(cc(c1)O)C'
p3838
sg25
g26
sg27
F0.03
sg8
(lp3839
g29
asg30
S'3,5-dimethylphenol'
p3840
sg13
I7948
sg14
F0.6
sg32
F-6.27
sg16
(lp3841
S'phenol or hydroxyhetarene'
p3842
aS'aromatic'
p3843
asg37
F-5.12
sg38
g39
ssS'mobley_9705941'
p3844
(dp3845
g3
S'Cc1cccs1'
p3846
sg25
g26
sg27
F0.02
sg8
(lp3847
g29
asg30
S'2-methylthiophene'
p3848
sg13
I11126
sg14
F0.6
sg32
F-1.38
sg16
(lp3849
S'aromatic'
p3850
aS'heterocyclic'
p3851
asg37
F-0.22
sg38
g39
ssS'mobley_4149784'
p3852
(dp3853
g3
S'c1cc2c(cc1Cl)Oc3ccc(cc3O2)Cl'
p3854
sg215
g216
sg217
F0.02
sg8
(lp3855
g29
asg219
S'2,7-dichlorodibenzo-p-dioxin'
p3856
sg13
I36613
sg221
F0.12
sg222
F-3.67
sg16
(lp3857
S'diaryl ether'
p3858
aS'aryl chloride'
p3859
aS'aromatic'
p3860
aS'heterocyclic'
p3861
asg225
F-3.39
sg226
g227
ssS'mobley_2213823'
p3862
(dp3863
g3
S'CCC(C)CC'
p3864
sg25
g26
sg27
F0.02
sg8
(lp3865
g29
asg30
S'3-methylpentane'
p3866
sg13
I7282
sg14
F0.6
sg32
F2.51
sg16
(lp3867
S''
p3868
asg37
F2.72
sg38
g39
ssS'mobley_7754849'
p3869
(dp3870
g3
S'CCOP(=S)(OCC)SCSP(=S)(OCC)OCC'
p3871
sg183
g184
sg185
F0.05
sg8
(lp3872
g29
asg187
S'ethion'
p3873
sg13
I3286
sg189
F1.37
sg190
F-6.1
sg16
(lp3874
S'thiophosphoric acid ester'
p3875
asg193
F-9.71
sg194
g195
ssS'mobley_8885088'
p3876
(dp3877
g3
S'C1CC=CC1'
p3878
sg25
g26
sg27
F0.02
sg8
(lp3879
g29
asg30
S'cyclopentene'
p3880
sg13
I8882
sg14
F0.6
sg32
F0.56
sg16
(lp3881
S'alkene'
p3882
asg37
F1.38
sg38
g39
ssS'mobley_3359593'
p3883
(dp3884
g3
S'CCCc1ccc(c(c1)OC)O'
p3885
sg270
g271
sg272
F0.024
sg8
(lp3886
g29
asg274
S'4-propylguaiacol'
p3887
sg13
I17739
sg276
F0.18
sg287
F-5.26
sg16
(lp3888
S'phenol or hydroxyhetarene'
p3889
aS'alkyl aryl ether'
p3890
aS'aromatic'
p3891
asg295
F-4.1
sg296
g297
ssS'mobley_7417968'
p3892
(dp3893
g3
S'CCOCCOC(=O)C'
p3894
sg270
g271
sg272
F0.021
sg8
(lp3895
g29
asg274
S'2-ethoxyethyl acetate'
p3896
sg13
I8095
sg276
g277
(g281
S'\x9a\x99\x99\x99\x99\x99\xb9?'
p3897
tp3898
Rp3899
sg287
g277
(g281
S'=\n\xd7\xa3p=\x15\xc0'
p3900
tp3901
Rp3902
sg16
(lp3903
S'dialkyl ether'
p3904
aS'carboxylic acid ester'
p3905
asg295
F-6.04
sg296
g297
ssS'mobley_9653690'
p3906
(dp3907
g3
S'CC1=CC[C@H](C[C@@H]1O)C(=C)C'
p3908
sg270
g271
sg272
F0.021
sg8
(lp3909
g29
asg274
S'(1S,5R)-2-methyl-5-(1-methylethenyl)-2-cyclohexen-1-ol'
p3910
sg13
I94221
sg276
F0.43
sg287
F-4.44
sg16
(lp3911
S'secondary alcohol'
p3912
aS'alkene'
p3913
asg295
F-3.38
sg296
g297
ssS'mobley_4699732'
p3914
(dp3915
g3
S'C[C@@H](CCl)Cl'
p3916
sg25
g26
sg27
F0.02
sg8
(lp3917
S'Renamed mobley_4699732 from 1,2-dichloropropane to (2S)-1,2-dichloropropane (the name from the 3D structure) since the former did not completely specify stereochemistry.\n'
p3918
asg30
S'1,2-dichloropropane'
p3919
sg13
I6564
sg14
F0.6
sg32
F-1.27
sg16
(lp3920
S'alkyl chloride'
p3921
asg37
F-0.2
sg38
g39
ssS'mobley_4305650'
p3922
(dp3923
g3
S'CCC#N'
p3924
sg25
g26
sg27
F0.02
sg8
(lp3925
g29
asg30
S'propanenitrile'
p3926
sg13
I7854
sg14
F0.6
sg32
F-3.84
sg16
(lp3927
S'carbonitrile'
p3928
asg37
F-1.27
sg38
g39
ssS'mobley_628951'
p3929
(dp3930
g3
S'c1cc(c(c(c1)Cl)c2c(cccc2Cl)Cl)Cl'
p3931
sg215
g216
sg217
F0.04
sg8
(lp3932
g29
asg219
S'1,3-dichloro-2-(2,6-dichlorophenyl)benzene'
p3933
sg13
I27588
sg221
F0.12
sg222
F-2.28
sg16
(lp3934
S'aryl chloride'
p3935
aS'aromatic'
p3936
asg225
F-1.22
sg226
g227
ssS'mobley_4883284'
p3937
(dp3938
g3
S'c1ccc(cc1)N'
p3939
sg25
g26
sg27
F0.02
sg8
(lp3940
g29
asg30
S'aniline'
p3941
sg13
I6115
sg14
F0.6
sg32
F-5.49
sg16
(lp3942
S'primary amine'
p3943
aS'primary aromatic amine'
p3944
aS'aromatic'
p3945
asg37
F-5.92
sg38
g39
ssS'mobley_3210206'
p3946
(dp3947
g3
S'C[C@@H](CO[N+](=O)[O-])O[N+](=O)[O-]'
p3948
sg183
g184
sg185
F0.03
sg8
(lp3949
g29
asg187
S'1,2-dinitroxypropane'
p3950
sg13
I21075956
sg189
F0.1
sg190
F-4.95
sg16
(lp3951
S'nitrate'
p3952
asg193
F-5.62
sg194
g195
ssS'mobley_2802855'
p3953
(dp3954
g3
S'CCCCBr'
p3955
sg25
g26
sg27
F0.02
sg8
(lp3956
g29
asg30
S'1-bromobutane'
p3957
sg13
I8002
sg14
F0.6
sg32
F-0.4
sg16
(lp3958
S'alkyl bromide'
p3959
asg37
F1.68
sg38
g39
ssS'mobley_1803862'
p3960
(dp3961
g3
S'CCC(C)C'
p3962
sg25
g26
sg27
F0.02
sg8
(lp3963
g29
asg30
S'isopentane'
p3964
sg13
I6556
sg14
F0.6
sg32
F2.38
sg16
(lp3965
S''
p3966
asg37
F2.52
sg38
g39
ssS'mobley_1858644'
p3967
(dp3968
g3
S'c1ccc(cc1)CCO'
p3969
sg25
g26
sg27
F0.03
sg8
(lp3970
g29
asg30
S'2-phenylethanol'
p3971
sg13
I6054
sg14
F0.6
sg32
F-6.79
sg16
(lp3972
S'primary alcohol'
p3973
aS'aromatic'
p3974
asg37
F-5.33
sg38
g39
ssS'mobley_8467917'
p3975
(dp3976
g3
S'CCCC/C=C/C'
p3977
sg25
g26
sg27
F0.02
sg8
(lp3978
S'Renamed mobley_8467917 from hept-2-ene to (E)-hept-2-ene (the name from the 3D structure) since the former did not completely specify stereochemistry.\n'
p3979
asg30
S'hept-2-ene'
p3980
sg13
I11611
sg14
F0.6
sg32
F1.68
sg16
(lp3981
S'alkene'
p3982
asg37
F2.83
sg38
g39
ssS'mobley_7017274'
p3983
(dp3984
g3
S'c1ccc2c(c1)ccc3c2cccc3'
p3985
sg25
g26
sg27
F0.03
sg8
(lp3986
g29
asg30
S'phenanthrene'
p3987
sg13
I995
sg14
F0.6
sg32
F-3.88
sg16
(lp3988
S'aromatic'
p3989
asg37
F-5.15
sg38
g39
ssS'mobley_8746821'
p3990
(dp3991
g3
S'Cc1cccnc1C'
p3992
sg25
g26
sg27
F0.02
sg8
(lp3993
g29
asg30
S'2,3-dimethylpyridine'
p3994
sg13
I11420
sg14
F0.6
sg32
F-4.82
sg16
(lp3995
S'aromatic'
p3996
aS'heterocyclic'
p3997
asg37
F-3.27
sg38
g39
ssS'mobley_4177472'
p3998
(dp3999
g3
S'CC(C)C(C)C(C)C'
p4000
sg25
g26
sg27
F0.03
sg8
(lp4001
g29
asg30
S'2,3,4-trimethylpentane'
p4002
sg13
I11269
sg14
F0.6
sg32
F2.56
sg16
(lp4003
S''
p4004
asg37
F2.86
sg38
g39
ssS'mobley_8522124'
p4005
(dp4006
g3
S'CCCCCCC#C'
p4007
sg25
g26
sg27
F0.03
sg8
(lp4008
g29
asg30
S'oct-1-yne'
p4009
sg13
I12370
sg14
F0.6
sg32
F0.71
sg16
(lp4010
S'alkyne'
p4011
asg37
F1.12
sg38
g39
ssS'mobley_1723043'
p4012
(dp4013
g3
S'C1(C(C(C1(F)F)(F)F)(F)F)(F)F'
p4014
sg424
g425
sg426
F0.04
sg8
(lp4015
g29
asg428
S'octafluorocyclobutane'
p4016
sg13
I8263
sg430
F0.03
sg431
F3.43
sg16
(lp4017
S'alkyl fluoride'
p4018
asg437
F3.01
sg438
g439
ssS'mobley_2245668'
p4019
(dp4020
g3
S'CC(C)CO'
p4021
sg25
g26
sg27
F0.02
sg8
(lp4022
g29
asg30
S'2-methylpropan-1-ol'
p4023
sg13
I6560
sg14
F0.6
sg32
F-4.5
sg16
(lp4024
S'primary alcohol'
p4025
asg37
F-2.96
sg38
g39
ssS'mobley_1592519'
p4026
(dp4027
g3
S'CCCCCC(=O)OCC'
p4028
sg25
g26
sg27
F0.04
sg8
(lp4029
g29
asg30
S'ethyl hexanoate'
p4030
sg13
I31265
sg14
F0.6
sg32
F-2.23
sg16
(lp4031
S'carboxylic acid ester'
p4032
asg37
F-2.8
sg38
g39
ssS'mobley_129464'
p4033
(dp4034
g3
S'CCCCOCCCC'
p4035
sg25
g26
sg27
F0.03
sg8
(lp4036
g29
asg30
S'1-butoxybutane'
p4037
sg13
I8909
sg14
F0.6
sg32
F-0.83
sg16
(lp4038
S'dialkyl ether'
p4039
asg37
F0.59
sg38
g39
ssS'mobley_9434451'
p4040
(dp4041
g3
S'CC(C)Br'
p4042
sg25
g26
sg27
F0.02
sg8
(lp4043
g29
asg30
S'2-bromopropane'
p4044
sg13
I6358
sg14
F0.6
sg32
F-0.48
sg16
(lp4045
S'alkyl bromide'
p4046
asg37
F0.97
sg38
g39
ssS'mobley_7261305'
p4047
(dp4048
g3
S'NN'
p4049
sg25
g26
sg27
F0.02
sg8
(lp4050
g29
asg30
S'hydrazine'
p4051
sg13
I9321
sg14
F0.6
sg32
F-9.3
sg16
(lp4052
S'hydrazine derivative'
p4053
asg37
F-7.1
sg38
g39
ssS'mobley_8191186'
p4054
(dp4055
g3
S'C(C(F)(F)F)Cl'
p4056
sg25
g26
sg27
F0.02
sg8
(lp4057
g29
asg30
S'2-chloro-1,1,1-trifluoro-ethane'
p4058
sg13
I6408
sg14
F0.6
sg32
F0.06
sg16
(lp4059
S'alkyl chloride'
p4060
asg37
F0.16
sg38
g39
ssS'mobley_3040612'
p4061
(dp4062
g3
S'CCc1ccccc1C'
p4063
sg270
g271
sg272
F0.021
sg8
(lp4064
g29
asg274
S'1-ethyl-2-methylbenzene'
p4065
sg13
I11903
sg276
g277
(g281
S'\x9a\x99\x99\x99\x99\x99\xb9?'
p4066
tp4067
Rp4068
sg287
g277
(g281
S'333333\xeb\xbf'
p4069
tp4070
Rp4071
sg16
(lp4072
S'aromatic'
p4073
asg295
F-0.766
sg296
g297
ssS'mobley_667278'
p4074
(dp4075
g3
S'c1cc(c(c(c1c2cc(c(c(c2Cl)Cl)Cl)Cl)Cl)Cl)Cl'
p4076
sg215
g216
sg217
F0.08
sg8
(lp4077
g29
asg219
S'1,2,3,4-tetrachloro-5-(2,3,4-trichlorophenyl)benzene'
p4078
sg13
I37037
sg221
F0.1
sg222
F-4.4
sg16
(lp4079
S'aryl chloride'
p4080
aS'aromatic'
p4081
asg225
F-2.21
sg226
g227
ssS'mobley_6911232'
p4082
(dp4083
g3
S'CCOC'
p4084
sg25
g26
sg27
F0.02
sg8
(lp4085
g29
asg30
S'methoxyethane'
p4086
sg13
I10903
sg14
F0.6
sg32
F-2.1
sg16
(lp4087
S'dialkyl ether'
p4088
asg37
F-0.82
sg38
g39
ssS'mobley_8057732'
p4089
(dp4090
g3
S'c1cc(cc(c1)Cl)O'
p4091
sg25
g26
sg27
F0.03
sg8
(lp4092
g29
asg30
S'3-chlorophenol'
p4093
sg13
I7933
sg14
F0.6
sg32
F-6.62
sg16
(lp4094
S'phenol or hydroxyhetarene'
p4095
aS'aryl chloride'
p4096
aS'aromatic'
p4097
asg37
F-5.28
sg38
g39
ssS'mobley_5310099'
p4098
(dp4099
g3
S'CCCCC=C'
p4100
sg25
g26
sg27
F0.02
sg8
(lp4101
g29
asg30
S'hex-1-ene'
p4102
sg13
I11597
sg14
F0.6
sg32
F1.58
sg16
(lp4103
S'alkene'
p4104
asg37
F2.59
sg38
g39
ssS'mobley_6198745'
p4105
(dp4106
g3
S'CC(=O)OCC(COC(=O)C)OC(=O)C'
p4107
sg1245
g1246
sg1247
F0.1
sg1248
(lp4108
g1250
ag29
aS'Changed IUPAC name from glycerol triacetate to 2,3-diacetoxypropyl acetate for better handling/standardization.'
p4109
ag169
asg1251
S'2,3-diacetoxypropyl acetate'
p4110
sg13
I5541
sg14
F0.2
sg1253
F-8.84
sg16
(lp4111
S'carboxylic acid ester'
p4112
asg1256
F-12.16
sg1257
g1246
ssS'mobley_3201701'
p4113
(dp4114
g3
S'Cc1c(nc(nc1OC(=O)N(C)C)N(C)C)C'
p4115
sg183
g184
sg185
F0.04
sg8
(lp4116
g29
aS'Changed IUPAC name from pirimor to 2-(dimethylamino)-5,6-dimethylpyrimidin-4-yl N,N-dimethylcarbamate for better handling/standardization.'
p4117
asg187
S'pirimor'
p4118
sg13
I31645
sg189
F1.93
sg190
F-9.41
sg16
(lp4119
S'tertiary amine'
p4120
aS'tertiary aliphatic/aromatic amine (alkylarylamine)'
p4121
aS'carbamic acid ester (urethane)'
p4122
aS'aromatic'
p4123
aS'heterocyclic'
p4124
asg193
F-13.68
sg194
g195
ssS'mobley_4690963'
p4125
(dp4126
g3
S'CCOCCOCC'
p4127
sg25
g26
sg27
F0.03
sg8
(lp4128
g29
asg30
S'1,2-diethoxyethane'
p4129
sg13
I12375
sg14
F0.6
sg32
F-3.54
sg16
(lp4130
S'dialkyl ether'
p4131
asg37
F-3.08
sg38
g39
ssS'mobley_1899443'
p4132
(dp4133
g3
S'CCCC(=C)C'
p4134
sg25
g26
sg27
F0.02
sg8
(lp4135
g29
asg30
S'2-methylpent-1-ene'
p4136
sg13
I12986
sg14
F0.6
sg32
F1.47
sg16
(lp4137
S'alkene'
p4138
asg37
F2.75
sg38
g39
ssS'mobley_3187514'
p4139
(dp4140
g3
S'Cc1ccccc1N'
p4141
sg25
g26
sg27
F0.03
sg8
(lp4142
g29
asg30
S'2-methylaniline'
p4143
sg13
I7242
sg14
F0.6
sg32
F-5.53
sg16
(lp4144
S'primary amine'
p4145
aS'primary aromatic amine'
p4146
aS'aromatic'
p4147
asg37
F-5.37
sg38
g39
ssS'mobley_4964807'
p4148
(dp4149
g3
S'CC(=O)CO[N+](=O)[O-]'
p4150
sg183
g184
sg185
F0.02
sg8
(lp4151
g29
asg187
S'nitroxyacetone'
p4152
sg13
I81226
sg189
F0.1
sg190
F-5.99
sg16
(lp4153
S'ketone'
p4154
aS'nitrate'
p4155
asg193
F-5.18
sg194
g195
ssS'mobley_4338603'
p4156
(dp4157
g3
S'c1c(=O)[nH]c(=O)[nH]c1Cl'
p4158
sg424
g425
sg426
F0.06
sg8
(lp4159
g29
asg428
S'6-chlorouracil'
p4160
sg13
I73272
sg430
F1.22
sg431
F-15.83
sg16
(lp4161
S'aryl chloride'
p4162
aS'oxo(het)arene'
p4163
aS'aromatic'
p4164
aS'heterocyclic'
p4165
asg437
F-15.11
sg438
g439
ssS'mobley_210639'
p4166
(dp4167
g3
S'CC(C)I'
p4168
sg25
g26
sg27
F0.02
sg8
(lp4169
g29
asg30
S'2-iodopropane'
p4170
sg13
I6362
sg14
F0.6
sg32
F-0.46
sg16
(lp4171
S'alkyl iodide'
p4172
asg37
F0.29
sg38
g39
ssS'mobley_1075836'
p4173
(dp4174
g3
S'CCC(=O)OC'
p4175
sg25
g26
sg27
F0.02
sg8
(lp4176
g29
asg30
S'methyl propanoate'
p4177
sg13
I11124
sg14
F0.6
sg32
F-2.93
sg16
(lp4178
S'carboxylic acid ester'
p4179
asg37
F-3.83
sg38
g39
ssS'mobley_6091882'
p4180
(dp4181
g3
S'C=C'
p4182
sg25
g26
sg27
F0.01
sg8
(lp4183
g29
asg30
S'ethylene'
p4184
sg13
I6325
sg14
F0.6
sg32
F1.28
sg16
(lp4185
S'alkene'
p4186
asg37
F2.36
sg38
g39
ssS'mobley_8514745'
p4187
(dp4188
g3
S'CCCCCOC(=O)C'
p4189
sg25
g26
sg27
F0.03
sg8
(lp4190
g29
asg30
S'pentyl acetate'
p4191
sg13
I12348
sg14
F0.6
sg32
F-2.51
sg16
(lp4192
S'carboxylic acid ester'
p4193
asg37
F-2.83
sg38
g39
ssS'mobley_8668219'
p4194
(dp4195
g3
S'CC[C@@H](C)C(C)C'
p4196
sg25
g26
sg27
F0.03
sg8
(lp4197
S'Renamed mobley_8668219 from 2,3-dimethylpentane to (3R)-2,3-dimethylpentane (the name from the 3D structure) since the former did not completely specify stereochemistry.\n'
p4198
asg30
S'2,3-dimethylpentane'
p4199
sg13
I11260
sg14
F0.6
sg32
F2.52
sg16
(lp4200
S''
p4201
asg37
F2.66
sg38
g39
ssS'mobley_9729792'
p4202
(dp4203
g3
S'C1C=CC=CC=C1'
p4204
sg25
g26
sg27
F0.02
sg8
(lp4205
g29
asg30
S'cyclohepta-1,3,5-triene'
p4206
sg13
I11000
sg14
F0.6
sg32
F-0.99
sg16
(lp4207
S'alkene'
p4208
asg37
F0.15
sg38
g39
ssS'mobley_2784376'
p4209
(dp4210
g3
S'C1CC1'
p4211
sg25
g26
sg27
F0.02
sg8
(lp4212
g29
asg30
S'cyclopropane'
p4213
sg13
I6351
sg14
F0.6
sg32
F0.75
sg16
(lp4214
S''
p4215
asg37
F2.64
sg38
g39
ssS'mobley_8739734'
p4216
(dp4217
g3
S'CC(C)C(=O)C'
p4218
sg25
g26
sg27
F0.02
sg8
(lp4219
g29
asg30
S'3-methylbutan-2-one'
p4220
sg13
I11251
sg14
F0.6
sg32
F-3.24
sg16
(lp4221
S'ketone'
p4222
asg37
F-2.93
sg38
g39
ssS'mobley_6338073'
p4223
(dp4224
g3
S'CCNc1nc(nc(n1)SC)NC(C)(C)C'
p4225
sg183
g184
sg185
F0.05
sg8
(lp4226
g29
aS'Changed IUPAC name from terbutryn to 2-N-tert-butyl-4-N-ethyl-6-(methylsulfanyl)-1,3,5-triazine-2,4-diamine for better handling/standardization.'
p4227
asg187
S'terbutryn'
p4228
sg13
I13450
sg189
F0.42
sg190
F-6.68
sg16
(lp4229
S'thioether'
p4230
aS'secondary amine'
p4231
aS'secondary aliphatic/aromatic amine (alkylarylamine)'
p4232
aS'aromatic'
p4233
aS'heterocyclic'
p4234
asg193
F-7.9
sg194
g195
ssS'mobley_4884177'
p4235
(dp4236
g3
S'CCc1cccnc1'
p4237
sg25
g26
sg27
F0.02
sg8
(lp4238
g29
asg30
S'3-ethylpyridine'
p4239
sg13
I10823
sg14
F0.6
sg32
F-4.59
sg16
(lp4240
S'aromatic'
p4241
aS'heterocyclic'
p4242
asg37
F-2.96
sg38
g39
ssS'mobley_6081058'
p4243
(dp4244
g3
S'CCCCC/C=C/C=O'
p4245
sg25
g26
sg27
F0.03
sg8
(lp4246
S'Renamed mobley_6081058 from oct-2-enal to (E)-oct-2-enal (the name from the 3D structure) since the former did not completely specify stereochemistry.\n'
p4247
asg30
S'oct-2-enal'
p4248
sg13
I16900
sg14
F0.6
sg32
F-3.43
sg16
(lp4249
S'aldehyde'
p4250
aS'alkene'
p4251
asg37
F-2.47
sg38
g39
ssS'mobley_9257453'
p4252
(dp4253
g3
S'c1cc(c(cc1O)Cl)Cl'
p4254
sg270
g271
sg272
F0.019
sg8
(lp4255
g29
asg274
S'3,4-dichlorophenol'
p4256
sg13
I7258
sg276
g277
(g281
S'\x9a\x99\x99\x99\x99\x99\xb9?'
p4257
tp4258
Rp4259
sg287
g277
(g281
S')\\\x8f\xc2\xf5(\x1d\xc0'
p4260
tp4261
Rp4262
sg16
(lp4263
S'phenol or hydroxyhetarene'
p4264
aS'aryl chloride'
p4265
aS'aromatic'
p4266
asg295
F-5.32
sg296
g297
ssS'mobley_36119'
p4267
(dp4268
g3
S'CCCCCCCCO'
p4269
sg25
g26
sg27
F0.03
sg8
(lp4270
g29
asg30
S'octan-1-ol'
p4271
sg13
I957
sg14
F0.6
sg32
F-4.09
sg16
(lp4272
S'primary alcohol'
p4273
asg37
F-2.65
sg38
g39
ssS'mobley_5079234'
p4274
(dp4275
g3
S'CCCCCCCO'
p4276
sg25
g26
sg27
F0.02
sg8
(lp4277
g29
asg30
S'heptan-1-ol'
p4278
sg13
I8129
sg14
F0.6
sg32
F-4.21
sg16
(lp4279
S'primary alcohol'
p4280
asg37
F-2.72
sg38
g39
ssS'mobley_2487143'
p4281
(dp4282
g3
S'CCCCC(=O)C'
p4283
sg25
g26
sg27
F0.02
sg8
(lp4284
g29
asg30
S'hexan-2-one'
p4285
sg13
I11583
sg14
F0.6
sg32
F-3.28
sg16
(lp4286
S'ketone'
p4287
asg37
F-2.77
sg38
g39
ssS'mobley_430089'
p4288
(dp4289
g3
S'CCCC#C'
p4290
sg25
g26
sg27
F0.02
sg8
(lp4291
g29
asg30
S'pent-1-yne'
p4292
sg13
I12309
sg14
F0.6
sg32
F0.01
sg16
(lp4293
S'alkyne'
p4294
asg37
F0.45
sg38
g39
ssS'mobley_7829570'
p4295
(dp4296
g3
S'CCCC[N@](CC)c1c(cc(cc1[N+](=O)[O-])C(F)(F)F)[N+](=O)[O-]'
p4297
sg183
g184
sg185
F0.04
sg8
(lp4298
g29
aS'Changed IUPAC name from benefin to N-butyl-N-ethyl-2,6-dinitro-4-(trifluoromethyl)aniline for better handling/standardization.'
p4299
asg187
S'N-butyl-N-ethyl-2,6-dinitro-4-(trifluoromethyl)aniline'
p4300
sg13
I2319
sg189
F1.93
sg190
F-3.51
sg16
(lp4301
S'tertiary amine'
p4302
aS'tertiary aliphatic/aromatic amine (alkylarylamine)'
p4303
aS'halogen derivative'
p4304
aS'nitro'
p4305
aS'aromatic'
p4306
asg193
F-2.68
sg194
g195
ssS'mobley_5890803'
p4307
(dp4308
g3
S'CCCOC(=O)CC'
p4309
sg25
g26
sg27
F0.02
sg8
(lp4310
g29
asg30
S'propyl propanoate'
p4311
sg13
I7803
sg14
F0.6
sg32
F-2.44
sg16
(lp4312
S'carboxylic acid ester'
p4313
asg37
F-2.95
sg38
g39
ssS'mobley_3269565'
p4314
(dp4315
g3
S'CC(C)OC'
p4316
sg25
g26
sg27
F0.02
sg8
(lp4317
g29
asg30
S'2-methoxypropane'
p4318
sg13
I11721
sg14
F0.6
sg32
F-2.01
sg16
(lp4319
S'dialkyl ether'
p4320
asg37
F-0.75
sg38
g39
ssS'mobley_1722522'
p4321
(dp4322
g3
S'CCCC(=O)OCC'
p4323
sg25
g26
sg27
F0.02
sg8
(lp4324
g29
asg30
S'ethyl butanoate'
p4325
sg13
I7762
sg14
F0.6
sg32
F-2.49
sg16
(lp4326
S'carboxylic acid ester'
p4327
asg37
F-3.04
sg38
g39
ssS'mobley_766666'
p4328
(dp4329
g3
S'C(=C(Cl)Cl)Cl'
p4330
sg25
g26
sg27
F0.02
sg8
(lp4331
g29
asg30
S'1,1,2-trichloroethylene'
p4332
sg13
I6575
sg14
F0.6
sg32
F-0.44
sg16
(lp4333
S'halogen derivative'
p4334
asg37
F0.99
sg38
g39
ssS'mobley_4188615'
p4335
(dp4336
g3
S'CN(C)C(=O)c1ccccc1'
p4337
sg25
g616
sg27
F0.04
sg8
(lp4338
g29
asg30
S'N,N-dimethylbenzamide'
p4339
sg13
I11916
sg14
F0.6
sg32
F-9.29
sg16
(lp4340
S'tertiary carboxylic acid amide'
p4341
aS'aromatic'
p4342
asg37
F-7.98
sg38
g39
ssS'mobley_3999471'
p4343
(dp4344
g3
S'CC(Cl)Cl'
p4345
sg25
g26
sg27
F0.02
sg8
(lp4346
g29
asg30
S'1,1-dichloroethane'
p4347
sg13
I6365
sg14
F0.6
sg32
F-0.84
sg16
(lp4348
S'alkyl chloride'
p4349
asg37
F0.17
sg38
g39
ssS'mobley_5747981'
p4350
(dp4351
g3
S'COCC(OC)(OC)OC'
p4352
sg25
g43
sg27
F0.04
sg8
(lp4353
g29
asg30
S'1,1,1,2-tetramethoxyethane'
p4354
sg13
I141897
sg14
F0.6
sg32
F-5.73
sg16
(lp4355
S'dialkyl ether'
p4356
aS'orthocarboxylic acid derivative'
p4357
aS'orthoester'
p4358
asg37
F-5.97
sg38
g39
ssS'mobley_9671033'
p4359
(dp4360
g3
S'CCC[N+](=O)[O-]'
p4361
sg25
g26
sg27
F0.02
sg8
(lp4362
g29
asg30
S'1-nitropropane'
p4363
sg13
I7903
sg14
F0.6
sg32
F-3.34
sg16
(lp4364
S'nitro'
p4365
asg37
F-1.38
sg38
g39
ssS'mobley_525934'
p4366
(dp4367
g3
S'CS'
p4368
sg5
g6
sg7
F0.1
sg8
(lp4369
g10
asg11
S'methanethiol'
p4370
sg13
I878
sg14
F0.2
sg15
F-1.2
sg16
(lp4371
S'thiol (sulfanyl)'
p4372
aS'alkylthiol'
p4373
asg19
F-0.2
sg20
g21
ssS'mobley_8578590'
p4374
(dp4375
g3
S'CS(=O)C'
p4376
sg25
S'10.1080/09593338709384509 and 10.1038/313384a0'
p4377
sg27
F0.03
sg8
(lp4378
g29
aS'Updated 10/22/13 using the mean of experimental data from two sources from J. Peter Guthrie --  Watts & Brimblecombe (1987) and Taft & Abraham et al. (1985). Uncertainty taken as the standard deviation across the two datapoints..\n'
p4379
asg30
S'methylsulfinylmethane'
p4380
sg13
I679
sg14
g277
(g281
S'8\n\xd7\xa3p=\xe2?'
p4381
tp4382
Rp4383
sg32
g277
(g281
S'\x90\xc2\xf5(\\\x8f"\xc0'
p4384
tp4385
Rp4386
sg16
(lp4387
S'sulfoxide'
p4388
asg37
F-8.32
sg38
g39
ssS'mobley_1821184'
p4389
(dp4390
g3
S'Cc1c[nH]c2c1cccc2'
p4391
sg25
g3159
sg27
F0.03
sg8
(lp4392
g29
asg30
S'3-methyl-1H-indole'
p4393
sg13
I6736
sg14
F0.6
sg32
F-5.88
sg16
(lp4394
S'aromatic'
p4395
aS'heterocyclic'
p4396
asg37
F-6.55
sg38
g39
ssS'mobley_6571751'
p4397
(dp4398
g3
S'CC1=CCCCC1'
p4399
sg25
g26
sg27
F0.02
sg8
(lp4400
g29
asg30
S'1-methylcyclohexene'
p4401
sg13
I11574
sg14
F0.6
sg32
F0.67
sg16
(lp4402
S'alkene'
p4403
asg37
F1.33
sg38
g39
ssS'mobley_4553008'
p4404
(dp4405
g3
S'c1cc(ccc1Cl)Cl'
p4406
sg25
g26
sg27
F0.02
sg8
(lp4407
g29
asg30
S'1,4-dichlorobenzene'
p4408
sg13
I4685
sg14
F0.6
sg32
F-1.01
sg16
(lp4409
S'aryl chloride'
p4410
aS'aromatic'
p4411
asg37
F-0.1
sg38
g39
ssS'mobley_5690766'
p4412
(dp4413
g3
S'C=CCCC=C'
p4414
sg25
g26
sg27
F0.02
sg8
(lp4415
g29
asg30
S'hexa-1,5-diene'
p4416
sg13
I11598
sg14
F0.6
sg32
F1.01
sg16
(lp4417
S'alkene'
p4418
asg37
F2.44
sg38
g39
ssS'mobley_7532833'
p4419
(dp4420
g3
S'CC#N'
p4421
sg25
S'10.1021/jp0264477'
p4422
sg27
F0.01
sg8
(lp4423
g29
asg30
S'acetonitrile'
p4424
sg13
I6342
sg14
F0.6
sg32
F-3.88
sg16
(lp4425
S'carbonitrile'
p4426
asg37
F-2.51
sg38
g39
ssS'mobley_3398536'
p4427
(dp4428
g3
S'c1ccc(cc1)I'
p4429
sg25
g26
sg27
F0.02
sg8
(lp4430
g29
asg30
S'iodobenzene'
p4431
sg13
I11575
sg14
F0.6
sg32
F-1.74
sg16
(lp4432
S'aryl iodide'
p4433
aS'aromatic'
p4434
asg37
F-0.34
sg38
g39
ssS'mobley_3546460'
p4435
(dp4436
g3
S'CCCCCCO'
p4437
sg25
g26
sg27
F0.02
sg8
(lp4438
g29
asg30
S'hexan-1-ol'
p4439
sg13
I8103
sg14
F0.6
sg32
F-4.4
sg16
(lp4440
S'primary alcohol'
p4441
asg37
F-3.03
sg38
g39
ssS'mobley_4013838'
p4442
(dp4443
g3
S'CC(C)C(=O)C(C)C'
p4444
sg25
g26
sg27
F0.02
sg8
(lp4445
g29
asg30
S'2,4-dimethylpentan-3-one'
p4446
sg13
I11271
sg14
F0.6
sg32
F-2.74
sg16
(lp4447
S'ketone'
p4448
asg37
F-2.47
sg38
g39
ssS'mobley_3746675'
p4449
(dp4450
g3
S'CC(=C)c1ccccc1'
p4451
sg25
g26
sg27
F0.02
sg8
(lp4452
g29
asg30
S'isopropenylbenzene'
p4453
sg13
I7407
sg14
F0.6
sg32
F-1.24
sg16
(lp4454
S'alkene'
p4455
aS'aromatic'
p4456
asg37
F-1.26
sg38
g39
ssS'mobley_6727159'
p4457
(dp4458
g3
S'C(CO[N+](=O)[O-])O'
p4459
sg183
g184
sg185
F0.03
sg8
(lp4460
g29
aS'Changed IUPAC name from ethyleneglycol mononitrate to 2-(nitrooxy)ethan-1-ol for better handling/standardization.'
p4461
asg187
S'2-(nitrooxy)ethan-1-ol'
p4462
sg13
I85254
sg189
F0.1
sg190
F-8.18
sg16
(lp4463
S'primary alcohol'
p4464
aS'nitrate'
p4465
asg193
F-6.5
sg194
g195
ssS'mobley_4639255'
p4466
(dp4467
g3
S'C(CO)O'
p4468
sg25
g26
sg27
F0.03
sg8
(lp4469
g29
asg30
S'ethylene glycol'
p4470
sg13
I174
sg14
F0.6
sg32
F-9.3
sg16
(lp4471
S'primary alcohol'
p4472
aS'1,2-diol'
p4473
asg37
F-7.62
sg38
g39
ssS'mobley_5006685'
p4474
(dp4475
g3
S'CC(=C)[C@H]1CCC(=CC1)C=O'
p4476
sg270
g271
sg272
F0.02
sg8
(lp4477
S'Renamed mobley_5006685 from 4-(1-Methylethenyl)-1-cyclohexene-1-carboxaldehyde to (4S)-4-isopropenylcyclohexene-1-carbaldehyde (the name from the 3D structure) since the former did not completely specify stereochemistry.\n'
p4478
asg274
S'4-(1-Methylethenyl)-1-cyclohexene-1-carboxaldehyde'
p4479
sg13
I16441
sg276
g277
(g281
S'\xc3\xf5(\\\x8f\xc2\xc5?'
p4480
tp4481
Rp4482
sg287
g277
(g281
S'\\\x8f\xc2\xf5(\\\x10\xc0'
p4483
tp4484
Rp4485
sg16
(lp4486
S'aldehyde'
p4487
aS'alkene'
p4488
asg295
F-3.61
sg296
g297
ssS'mobley_9565165'
p4489
(dp4490
g3
S'c1ccc-2c(c1)Cc3c2cccc3'
p4491
sg25
g26
sg27
F0.02
sg8
(lp4492
g29
asg30
S'9H-fluorene'
p4493
sg13
I6853
sg14
F0.6
sg32
F-3.35
sg16
(lp4494
S'aromatic'
p4495
asg37
F-4.29
sg38
g39
ssS'mobley_2609604'
p4496
(dp4497
g3
S'CCC(C)(C)CC'
p4498
sg25
g26
sg27
F0.03
sg8
(lp4499
g29
asg30
S'3,3-dimethylpentane'
p4500
sg13
I11229
sg14
F0.6
sg32
F2.56
sg16
(lp4501
S''
p4502
asg37
F2.53
sg38
g39
ssS'mobley_5747188'
p4503
(dp4504
g3
S'Cc1ccccc1[N+](=O)[O-]'
p4505
sg25
g26
sg27
F0.02
sg8
(lp4506
g29
asg30
S'1-methyl-2-nitro-benzene'
p4507
sg13
I6944
sg14
F0.6
sg32
F-3.58
sg16
(lp4508
S'nitro'
p4509
aS'aromatic'
p4510
asg37
F-3.14
sg38
g39
ssS'mobley_9626434'
p4511
(dp4512
g3
S'CCOCCO'
p4513
sg25
g26
sg27
F0.03
sg8
(lp4514
g29
asg30
S'2-ethoxyethanol'
p4515
sg13
I8076
sg14
F0.6
sg32
F-6.69
sg16
(lp4516
S'primary alcohol'
p4517
aS'dialkyl ether'
p4518
asg37
F-4.77
sg38
g39
ssS'mobley_4587267'
p4519
(dp4520
g3
S'C([C@H]([C@H]([C@@H]([C@@H](CO)O)O)O)O)O'
p4521
sg270
g271
sg272
F0.043
sg8
(lp4522
g29
asg274
S'(2R,3R,4R,5R)-Hexan-1,2,3,4,5,6-hexol'
p4523
sg13
I6251
sg276
g277
(g281
S'{\x14\xaeG\xe1z\xd4?'
p4524
tp4525
Rp4526
sg287
g277
(g281
S'\x1f\x85\xebQ\xb8\x9e7\xc0'
p4527
tp4528
Rp4529
sg16
(lp4530
S'primary alcohol'
p4531
aS'secondary alcohol'
p4532
aS'1,2-diol'
p4533
asg295
F-18.64
sg296
g297
ssS'mobley_172879'
p4534
(dp4535
g3
S'c1ccc2c(c1)Oc3ccccc3O2'
p4536
sg215
g216
sg217
F0.02
sg8
(lp4537
g29
asg219
S'dibenzo-p-dioxin'
p4538
sg13
I9216
sg221
F0.1
sg222
F-3.15
sg16
(lp4539
S'diaryl ether'
p4540
aS'aromatic'
p4541
aS'heterocyclic'
p4542
asg225
F-4.8
sg226
g227
ssS'mobley_2457863'
p4543
(dp4544
g3
S'COc1cccc(c1)O'
p4545
sg25
g26
sg27
F0.03
sg8
(lp4546
g29
asg30
S'3-methoxyphenol'
p4547
sg13
I9007
sg14
F0.6
sg32
F-7.66
sg16
(lp4548
S'phenol or hydroxyhetarene'
p4549
aS'alkyl aryl ether'
p4550
aS'aromatic'
p4551
asg37
F-7.03
sg38
g39
ssS'mobley_2143011'
p4552
(dp4553
g3
S'CC(C)C=C'
p4554
sg25
g4422
sg27
F0.02
sg8
(lp4555
g29
asg30
S'3-methylbut-1-ene'
p4556
sg13
I11239
sg14
F0.6
sg32
F1.83
sg16
(lp4557
S'alkene'
p4558
asg37
F2.8
sg38
g39
ssS'mobley_2837389'
p4559
(dp4560
g3
S'c1cc[nH]c1'
p4561
sg25
g26
sg27
F0.02
sg8
(lp4562
g29
asg30
S'pyrrole'
p4563
sg13
I8027
sg14
F0.6
sg32
F-4.78
sg16
(lp4564
S'aromatic'
p4565
aS'heterocyclic'
p4566
asg37
F-3.87
sg38
g39
ssS'mobley_8789465'
p4567
(dp4568
g3
S'c1ccc(c(c1)O)I'
p4569
sg25
g26
sg27
F0.03
sg8
(lp4570
g29
asg30
S'2-iodophenol'
p4571
sg13
I10784
sg14
F0.6
sg32
F-6.2
sg16
(lp4572
S'phenol or hydroxyhetarene'
p4573
aS'aryl iodide'
p4574
aS'aromatic'
p4575
asg37
F-2.91
sg38
g39
ssS'mobley_2859600'
p4576
(dp4577
g3
S'C=Cc1ccccc1'
p4578
sg25
g26
sg27
F0.02
sg8
(lp4579
g29
asg30
S'styrene'
p4580
sg13
I7501
sg14
F0.6
sg32
F-1.24
sg16
(lp4581
S'alkene'
p4582
aS'aromatic'
p4583
asg37
F-1.32
sg38
g39
ssS'mobley_1855337'
p4584
(dp4585
g3
S'c1c(cc(c(c1Cl)Cl)Cl)Cl'
p4586
sg25
g26
sg27
F0.02
sg8
(lp4587
g29
asg30
S'1,2,3,5-tetrachlorobenzene'
p4588
sg13
I12468
sg14
F0.6
sg32
F-1.62
sg16
(lp4589
S'aryl chloride'
p4590
aS'aromatic'
p4591
asg37
F-0.02
sg38
g39
ssS'mobley_9740891'
p4592
(dp4593
g3
S'c1cc(c(c(c1)Cl)C#N)Cl'
p4594
sg183
g184
sg185
F0.02
sg8
(lp4595
g29
asg187
S'dichlobenil'
p4596
sg13
I3031
sg189
F1.93
sg190
F-4.71
sg16
(lp4597
S'aryl chloride'
p4598
aS'carbonitrile'
p4599
aS'aromatic'
p4600
asg193
F-2.57
sg194
g195
ssS'mobley_7608462'
p4601
(dp4602
g3
S'c1ccc(cc1)Cl'
p4603
sg25
g26
sg27
F0.02
sg8
(lp4604
g29
asg30
S'chlorobenzene'
p4605
sg13
I7964
sg14
F0.6
sg32
F-1.12
sg16
(lp4606
S'aryl chloride'
p4607
aS'aromatic'
p4608
asg37
F-0.6
sg38
g39
ssS'mobley_8221999'
p4609
(dp4610
g3
S'CCCC#N'
p4611
sg25
g26
sg27
F0.02
sg8
(lp4612
g29
asg30
S'butanenitrile'
p4613
sg13
I8008
sg14
F0.6
sg32
F-3.64
sg16
(lp4614
S'carbonitrile'
p4615
asg37
F-2.23
sg38
g39
ssS'mobley_4762983'
p4616
(dp4617
g3
S'CCCCCC=C'
p4618
sg25
g26
sg27
F0.02
sg8
(lp4619
g29
asg30
S'hept-1-ene'
p4620
sg13
I11610
sg14
F0.6
sg32
F1.66
sg16
(lp4621
S'alkene'
p4622
asg37
F2.97
sg38
g39
ssS'mobley_2279874'
p4623
(dp4624
g3
S'COC(OC)OC'
p4625
sg25
g1396
sg27
F0.03
sg8
(lp4626
g29
asg30
S'trimethoxymethane'
p4627
sg13
I9005
sg14
F0.6
sg32
F-4.42
sg16
(lp4628
S'orthocarboxylic acid derivative'
p4629
aS'orthoester'
p4630
asg37
F-4.06
sg38
g39
ssS'mobley_3663158'
p4631
(dp4632
g3
S'c1ccc2cc(ccc2c1)O'
p4633
sg25
g26
sg27
F0.03
sg8
(lp4634
g29
asg30
S'naphthalen-2-ol'
p4635
sg13
I8663
sg14
F0.6
sg32
F-8.11
sg16
(lp4636
S'phenol or hydroxyhetarene'
p4637
aS'aromatic'
p4638
asg37
F-7.88
sg38
g39
ssS'mobley_8764620'
p4639
(dp4640
g3
S'c1cc(cnc1)C#N'
p4641
sg25
g26
sg27
F0.02
sg8
(lp4642
g29
asg30
S'pyridine-3-carbonitrile'
p4643
sg13
I79
sg14
F0.6
sg32
F-6.75
sg16
(lp4644
S'carbonitrile'
p4645
aS'aromatic'
p4646
aS'heterocyclic'
p4647
asg37
F-4.63
sg38
g39
ssS'mobley_820789'
p4648
(dp4649
g3
S'CCCC(=O)O'
p4650
sg25
g26
sg27
F0.03
sg8
(lp4651
g29
asg30
S'butyric acid'
p4652
sg13
I264
sg14
F0.6
sg32
F-6.35
sg16
(lp4653
S'carboxylic acid'
p4654
asg37
F-5.46
sg38
g39
ssS'mobley_6978427'
p4655
(dp4656
g3
S'COC(=O)C1CCCCC1'
p4657
sg25
g26
sg27
F0.02
sg8
(lp4658
g29
asg30
S'methyl cyclohexanecarboxylate'
p4659
sg13
I20748
sg14
F0.6
sg32
F-3.3
sg16
(lp4660
S'carboxylic acid ester'
p4661
asg37
F-4.29
sg38
g39
ssS'mobley_6739648'
p4662
(dp4663
g3
S'C1COCCO1'
p4664
sg25
g26
sg27
F0.02
sg8
(lp4665
g29
asg30
S'1,4-dioxane'
p4666
sg13
I31275
sg14
F0.6
sg32
F-5.06
sg16
(lp4667
S'dialkyl ether'
p4668
aS'heterocyclic'
p4669
asg37
F-4.35
sg38
g39
ssS'mobley_3105103'
p4670
(dp4671
g3
S'Cc1c(c(=O)n(c(=O)[nH]1)C(C)(C)C)Cl'
p4672
sg183
g184
sg185
F0.04
sg8
(lp4673
g29
asg187
S'terbacil'
p4674
sg13
I22188
sg189
F1.93
sg190
F-11.14
sg16
(lp4675
S'aryl chloride'
p4676
aS'oxo(het)arene'
p4677
aS'aromatic'
p4678
aS'heterocyclic'
p4679
asg193
F-13.33
sg194
g195
ssS'mobley_1800170'
p4680
(dp4681
g3
S'CCS'
p4682
sg25
g26
sg27
F0.02
sg8
(lp4683
g29
asg30
S'ethanethiol'
p4684
sg13
I6343
sg14
F0.6
sg32
F-1.14
sg16
(lp4685
S'thiol (sulfanyl)'
p4686
aS'alkylthiol'
p4687
asg37
F-0.4
sg38
g39
ssS'mobley_1046331'
p4688
(dp4689
g3
S'c1ccc(cc1)OC=O'
p4690
sg25
g1420
sg27
F0.02
sg8
(lp4691
g29
asg30
S'phenyl formate'
p4692
sg13
I74626
sg14
F0.6
sg32
F-3.82
sg16
(lp4693
S'carboxylic acid ester'
p4694
aS'aromatic'
p4695
asg37
F-4.83
sg38
g39
ssS'mobley_9821936'
p4696
(dp4697
g3
S'c12c(c(c(c(c1Cl)Cl)Cl)Cl)Oc3c(c(c(c(c3Cl)Cl)Cl)Cl)O2'
p4698
sg215
g216
sg217
F0.04
sg8
(lp4699
g29
asg219
S'1,2,3,4,6,7,8,9-octachlorodibenzo-p-dioxin'
p4700
sg13
I18636
sg221
F1.0
sg222
F-4.53
sg16
(lp4701
S'diaryl ether'
p4702
aS'aryl chloride'
p4703
aS'aromatic'
p4704
aS'heterocyclic'
p4705
asg225
F-1.15
sg226
g227
ssS'mobley_8311303'
p4706
(dp4707
g3
S'c1cc(c(cc1c2c(c(cc(c2Cl)Cl)Cl)Cl)Cl)Cl'
p4708
sg215
g216
sg217
F0.04
sg8
(lp4709
g29
asg219
S'1,2,4,5-tetrachloro-3-(3,4-dichlorophenyl)benzene'
p4710
sg13
I63079
sg221
F0.22
sg222
F-4.38
sg16
(lp4711
S'aryl chloride'
p4712
aS'aromatic'
p4713
asg225
F-0.7
sg226
g227
ssS'mobley_4483973'
p4714
(dp4715
g3
S'c1ccc(cc1)F'
p4716
sg25
g26
sg27
F0.02
sg8
(lp4717
g29
asg30
S'fluorobenzene'
p4718
sg13
I10008
sg14
F0.6
sg32
F-0.8
sg16
(lp4719
S'aryl fluoride'
p4720
aS'aromatic'
p4721
asg37
F-0.07
sg38
g39
ssS'mobley_4845722'
p4722
(dp4723
g3
S'c1(c(c(c(c(c1Cl)Cl)Cl)Cl)Cl)Cl'
p4724
sg424
g425
sg426
F0.04
sg8
(lp4725
g29
asg428
S'hexachlorobenzene'
p4726
sg13
I8370
sg430
F1.16
sg431
F-2.33
sg16
(lp4727
S'aryl chloride'
p4728
aS'aromatic'
p4729
asg437
F0.24
sg438
g439
ssS'mobley_2294995'
p4730
(dp4731
g3
S'CCOC=O'
p4732
sg25
g26
sg27
F0.02
sg8
(lp4733
g29
asg30
S'ethyl formate'
p4734
sg13
I8025
sg14
F0.6
sg32
F-2.56
sg16
(lp4735
S'carboxylic acid ester'
p4736
asg37
F-2.99
sg38
g39
ssS'mobley_303222'
p4737
(dp4738
g3
S'CC=C'
p4739
sg25
g26
sg27
F0.02
sg8
(lp4740
g29
asg30
S'prop-1-ene'
p4741
sg13
I8252
sg14
F0.6
sg32
F1.32
sg16
(lp4742
S'alkene'
p4743
asg37
F2.44
sg38
g39
ssS'mobley_1563176'
p4744
(dp4745
g3
S'CCCCS'
p4746
sg25
g26
sg27
F0.02
sg8
(lp4747
g29
asg30
S'butane-1-thiol'
p4748
sg13
I8012
sg14
F0.6
sg32
F-0.99
sg16
(lp4749
S'thiol (sulfanyl)'
p4750
aS'alkylthiol'
p4751
asg37
F-0.12
sg38
g39
ssS'mobley_4375719'
p4752
(dp4753
g3
S'CCCCCCCCC'
p4754
sg25
g26
sg27
F0.03
sg8
(lp4755
g29
asg30
S'nonane'
p4756
sg13
I8141
sg14
F0.6
sg32
F3.13
sg16
(lp4757
S''
p4758
asg37
F3.32
sg38
g39
ssS'mobley_8117218'
p4759
(dp4760
g3
S'C1[C@@H]2[C@H]3[C@@H]([C@H]1[C@H]4[C@@H]2O4)[C@@]5(C(=C([C@]3(C5(Cl)Cl)Cl)Cl)Cl)Cl'
p4761
sg183
g184
sg185
F0.07
sg8
(lp4762
g29
asg187
S'endrin'
p4763
sg13
I3048
sg189
F0.1
sg190
F-4.82
sg16
(lp4764
S'dialkyl ether'
p4765
aS'alkyl chloride'
p4766
aS'alkene'
p4767
aS'heterocyclic'
p4768
asg193
F-4.77
sg194
g195
ssS'mobley_8765203'
p4769
(dp4770
g3
S'CC(=C)C=C'
p4771
sg25
g26
sg27
F0.02
sg8
(lp4772
g29
asg30
S'isoprene'
p4773
sg13
I6557
sg14
F0.6
sg32
F0.68
sg16
(lp4774
S'alkene'
p4775
asg37
F1.81
sg38
g39
ssS'mobley_1278715'
p4776
(dp4777
g3
S'C(C(Cl)(Cl)Cl)(Cl)(Cl)Cl'
p4778
sg424
g425
sg426
F0.04
sg8
(lp4779
g29
asg428
S'hexachloroethane'
p4780
sg13
I6214
sg430
F0.1
sg431
F-0.64
sg16
(lp4781
S'halogen derivative'
p4782
asg437
F1.0
sg438
g439
ssS'mobley_2269032'
p4783
(dp4784
g3
S'C[C@@H](c1ccc2cc(ccc2c1)OC)C(=O)O'
p4785
sg424
g425
sg426
F0.1
sg8
(lp4786
g29
asg428
S'naproxen'
p4787
sg13
I156391
sg430
F0.18
sg431
F-10.21
sg16
(lp4788
S'alkyl aryl ether'
p4789
aS'carboxylic acid'
p4790
aS'aromatic'
p4791
asg437
F-10.8
sg438
g439
ssS'mobley_929676'
p4792
(dp4793
g3
S'CCCCCCBr'
p4794
sg25
g26
sg27
F0.02
sg8
(lp4795
g29
asg30
S'1-bromohexane'
p4796
sg13
I8101
sg14
F0.6
sg32
F0.18
sg16
(lp4797
S'alkyl bromide'
p4798
asg37
F1.78
sg38
g39
ssS'mobley_1328465'
p4799
(dp4800
g3
S'C(C(Cl)Cl)Cl'
p4801
sg25
g26
sg27
F0.03
sg8
(lp4802
g29
asg30
S'1,1,2-trichloroethane'
p4803
sg13
I6574
sg14
F0.6
sg32
F-1.99
sg16
(lp4804
S'alkyl chloride'
p4805
asg37
F-0.5
sg38
g39
ssS'mobley_296847'
p4806
(dp4807
g3
S'c1ccncc1'
p4808
sg25
g26
sg27
F0.02
sg8
(lp4809
g29
asg30
S'pyridine'
p4810
sg13
I1049
sg14
F0.6
sg32
F-4.69
sg16
(lp4811
S'aromatic'
p4812
aS'heterocyclic'
p4813
asg37
F-3.45
sg38
g39
ssS'mobley_4983965'
p4814
(dp4815
g3
S'CCSCC'
p4816
sg25
g26
sg27
F0.02
sg8
(lp4817
g29
asg30
S'ethylsulfanylethane'
p4818
sg13
I9609
sg14
F0.6
sg32
F-1.46
sg16
(lp4819
S'thioether'
p4820
asg37
F0.21
sg38
g39
ssS'mobley_6082662'
p4821
(dp4822
g3
S'c1cc(ccc1N)N(=O)=O'
p4823
sg424
g425
sg426
F0.05
sg8
(lp4824
g29
asg428
S'4-nitroaniline'
p4825
sg13
I7475
sg430
F0.1
sg431
F-9.82
sg16
(lp4826
S'primary amine'
p4827
aS'primary aromatic amine'
p4828
aS'nitro'
p4829
aS'aromatic'
p4830
asg437
F-10.38
sg438
g439
ssS'mobley_7859387'
p4831
(dp4832
g3
S'CCCCCCC=O'
p4833
sg25
g26
sg27
F0.03
sg8
(lp4834
g29
asg30
S'heptanal'
p4835
sg13
I8130
sg14
F0.6
sg32
F-2.67
sg16
(lp4836
S'aldehyde'
p4837
asg37
F-2.63
sg38
g39
ssS'mobley_7360181'
p4838
(dp4839
g3
S'COC(C(F)(F)F)(OC)OC'
p4840
sg424
g425
sg426
F0.05
sg8
(lp4841
g29
aS'Changed IUPAC name from trimethyl orthotrifluoroacetate to 1,1,1-trifluoro-2,2,2-trimethoxyethane for better handling/standardization.'
p4842
asg428
S'1,1,1-trifluoro-2,2,2-trimethoxyethane'
p4843
sg13
I18927701
sg430
F0.2
sg431
F-0.8
sg16
(lp4844
S'halogen derivative'
p4845
aS'orthocarboxylic acid derivative'
p4846
aS'orthoester'
p4847
asg437
F-2.37
sg438
g439
ssS'mobley_2923700'
p4848
(dp4849
g3
S'CCc1ccc(cc1)O'
p4850
sg25
g26
sg27
F0.03
sg8
(lp4851
g29
asg30
S'4-ethylphenol'
p4852
sg13
I31242
sg14
F0.6
sg32
F-6.13
sg16
(lp4853
S'phenol or hydroxyhetarene'
p4854
aS'aromatic'
p4855
asg37
F-5.08
sg38
g39
ssS'mobley_2123854'
p4856
(dp4857
g3
S'c1cc(ccc1C#N)O'
p4858
sg25
g26
sg27
F0.03
sg8
(lp4859
g29
asg30
S'4-hydroxybenzonitrile'
p4860
sg13
I13019
sg14
F0.6
sg32
F-10.17
sg16
(lp4861
S'phenol or hydroxyhetarene'
p4862
aS'carbonitrile'
p4863
aS'aromatic'
p4864
asg37
F-7.24
sg38
g39
ssS'mobley_3589456'
p4865
(dp4866
g3
S'COC(CCl)(OC)OC'
p4867
sg25
g43
sg27
F0.04
sg8
(lp4868
g29
asg30
S'2-chloro-1,1,1-trimethoxy-ethane'
p4869
sg13
I144702
sg14
F0.6
sg32
F-4.59
sg16
(lp4870
S'alkyl chloride'
p4871
aS'orthocarboxylic acid derivative'
p4872
aS'orthoester'
p4873
asg37
F-3.3
sg38
g39
ssS'mobley_2078467'
p4874
(dp4875
g3
S'C[C@@H](c1ccc(cc1)CC(C)C)C(=O)O'
p4876
sg424
g425
sg426
F0.07
sg8
(lp4877
g29
asg428
S'ibuprofen'
p4878
sg13
I3672
sg430
F0.64
sg431
F-7.0
sg16
(lp4879
S'carboxylic acid'
p4880
aS'aromatic'
p4881
asg437
F-6.91
sg438
g439
ssS'mobley_3265457'
p4882
(dp4883
g3
S'COc1cc(c(c(c1O)OC)Cl)C=O'
p4884
sg270
g271
sg272
F0.025
sg8
(lp4885
g29
asg274
S'2-chlorosyringaldehyde'
p4886
sg13
I53479
sg276
g277
(g281
S'\xa4p=\n\xd7\xa3\xe8?'
p4887
tp4888
Rp4889
sg287
g277
(g281
S'\x1f\x85\xebQ\xb8\x1e\x1f\xc0'
p4890
tp4891
Rp4892
sg16
(lp4893
S'aldehyde'
p4894
aS'phenol or hydroxyhetarene'
p4895
aS'alkyl aryl ether'
p4896
aS'aryl chloride'
p4897
aS'aromatic'
p4898
asg295
F-9.23
sg296
g297
ssS'mobley_9028462'
p4899
(dp4900
g3
S'COC(=O)C(F)(F)F'
p4901
sg25
S'10.1139/v76-032'
p4902
sg27
F0.02
sg8
(lp4903
g29
asg30
S'methyl 2,2,2-trifluoroacetate'
p4904
sg13
I9893
sg14
F0.6
sg32
F-1.1
sg16
(lp4905
S'halogen derivative'
p4906
aS'carboxylic acid ester'
p4907
asg37
F-1.39
sg38
g39
ssS'mobley_3259411'
p4908
(dp4909
g3
S'C(C(CO)O)O'
p4910
sg424
g425
sg426
F0.06
sg8
(lp4911
g29
asg428
S'glycerol'
p4912
sg13
I753
sg430
F1.0
sg431
F-13.43
sg16
(lp4913
S'primary alcohol'
p4914
aS'secondary alcohol'
p4915
aS'1,2-diol'
p4916
asg437
F-9.71
sg438
g439
ssS'mobley_7735340'
p4917
(dp4918
g3
S'c1cnc[nH]1'
p4919
sg25
g26
sg27
F0.03
sg8
(lp4920
g29
asg30
S'imidazole'
p4921
sg13
I795
sg14
F0.6
sg32
F-9.63
sg16
(lp4922
S'aromatic'
p4923
aS'heterocyclic'
p4924
asg37
F-7.85
sg38
g39
ssS'mobley_5948990'
p4925
(dp4926
g3
S'c1ccc(c(c1)N)[N+](=O)[O-]'
p4927
sg25
g26
sg27
F0.03
sg8
(lp4928
g29
asg30
S'2-nitroaniline'
p4929
sg13
I6946
sg14
F0.6
sg32
F-7.37
sg16
(lp4930
S'primary amine'
p4931
aS'primary aromatic amine'
p4932
aS'nitro'
p4933
aS'aromatic'
p4934
asg37
F-7.96
sg38
g39
ssS'mobley_3452749'
p4935
(dp4936
g3
S'Cc1cccc(c1C)C'
p4937
sg25
g26
sg27
F0.02
sg8
(lp4938
g29
asg30
S'1,2,3-trimethylbenzene'
p4939
sg13
I10686
sg14
F0.6
sg32
F-1.21
sg16
(lp4940
S'aromatic'
p4941
asg37
F-0.65
sg38
g39
ssS'mobley_9414831'
p4942
(dp4943
g3
S'Cc1cccc2c1cccc2'
p4944
sg25
g26
sg27
F0.02
sg8
(lp4945
g29
asg30
S'1-methylnaphthalene'
p4946
sg13
I7002
sg14
F0.6
sg32
F-2.44
sg16
(lp4947
S'aromatic'
p4948
asg37
F-3.24
sg38
g39
ssS'mobley_7599023'
p4949
(dp4950
g3
S'c1ccc(cc1)Br'
p4951
sg25
g26
sg27
F0.02
sg8
(lp4952
g29
asg30
S'bromobenzene'
p4953
sg13
I7961
sg14
F0.6
sg32
F-1.46
sg16
(lp4954
S'aryl bromide'
p4955
aS'aromatic'
p4956
asg37
F-0.37
sg38
g39
ssS'mobley_9557440'
p4957
(dp4958
g3
S'c1c(c(=O)[nH]c(=O)[nH]1)Cl'
p4959
sg424
g425
sg426
F0.06
sg8
(lp4960
g29
asg428
S'5-chlorouracil'
p4961
sg13
I15758
sg430
F0.78
sg431
F-17.74
sg16
(lp4962
S'aryl chloride'
p4963
aS'oxo(het)arene'
p4964
aS'aromatic'
p4965
aS'heterocyclic'
p4966
asg437
F-16.7
sg438
g439
ssS'mobley_6474572'
p4967
(dp4968
g3
S'C=CCl'
p4969
sg25
g26
sg27
F0.02
sg8
(lp4970
g29
asg30
S'chloroethylene'
p4971
sg13
I6338
sg14
F0.6
sg32
F-0.59
sg16
(lp4972
S'halogen derivative'
p4973
aS'alkene'
p4974
asg37
F1.22
sg38
g39
ssS'mobley_6988468'
p4975
(dp4976
g3
S'CCc1ccccn1'
p4977
sg25
g26
sg27
F0.02
sg8
(lp4978
g29
asg30
S'2-ethylpyridine'
p4979
sg13
I7523
sg14
F0.6
sg32
F-4.33
sg16
(lp4980
S'aromatic'
p4981
aS'heterocyclic'
p4982
asg37
F-3.21
sg38
g39
ssS'mobley_7150646'
p4983
(dp4984
g3
S'c1cc(ccc1Br)Br'
p4985
sg25
g26
sg27
F0.02
sg8
(lp4986
g29
asg30
S'1,4-dibromobenzene'
p4987
sg13
I7804
sg14
F0.6
sg32
F-2.3
sg16
(lp4988
S'aryl bromide'
p4989
aS'aromatic'
p4990
asg37
F-0.01
sg38
g39
ssS'mobley_5708811'
p4991
(dp4992
g3
S'COc1c(ccc(c1C(=O)O)Cl)Cl'
p4993
sg183
g184
sg185
F0.04
sg8
(lp4994
g29
asg187
S'dicamba'
p4995
sg13
I3030
sg189
F1.93
sg190
F-9.86
sg16
(lp4996
S'alkyl aryl ether'
p4997
aS'aryl chloride'
p4998
aS'carboxylic acid'
p4999
aS'aromatic'
p5000
asg193
F-8.13
sg194
g195
ssS'mobley_6688723'
p5001
(dp5002
g3
S'COc1c(cc(c(c1O)OC)Cl)Cl'
p5003
sg270
g271
sg272
F0.023
sg8
(lp5004
g29
asg274
S'3,5-dichloro-2,6-dimethoxyphenol'
p5005
sg13
I93462
sg276
g277
(g281
S'R\xb8\x1e\x85\xebQ\xd8?'
p5006
tp5007
Rp5008
sg287
F-6.44
sg16
(lp5009
S'phenol or hydroxyhetarene'
p5010
aS'alkyl aryl ether'
p5011
aS'aryl chloride'
p5012
aS'aromatic'
p5013
asg295
F-6.13
sg296
g297
ssS'mobley_4252724'
p5014
(dp5015
g3
S'CC(C)Cc1ccccc1'
p5016
sg25
g26
sg27
F0.02
sg8
(lp5017
g29
asg30
S'isobutylbenzene'
p5018
sg13
I10870
sg14
F0.6
sg32
F0.16
sg16
(lp5019
S'aromatic'
p5020
asg37
F0.0
sg38
g39
ssS'mobley_8983100'
p5021
(dp5022
g3
S'CBr'
p5023
sg25
g26
sg27
F0.01
sg8
(lp5024
g29
asg30
S'bromomethane'
p5025
sg13
I6323
sg14
F0.6
sg32
F-0.82
sg16
(lp5026
S'alkyl bromide'
p5027
asg37
F1.09
sg38
g39
ssS'mobley_1952272'
p5028
(dp5029
g3
S'C[N+](=O)[O-]'
p5030
sg25
g26
sg27
F0.01
sg8
(lp5031
g29
asg30
S'nitromethane'
p5032
sg13
I6375
sg14
F0.6
sg32
F-4.02
sg16
(lp5033
S'nitro'
p5034
asg37
F-2.03
sg38
g39
ssS'mobley_9007496'
p5035
(dp5036
g3
S'CNC(=O)Oc1cccc2c1cccc2'
p5037
sg183
g184
sg185
F0.04
sg8
(lp5038
g29
aS'Changed IUPAC name from carbaryl to naphthalen-1-yl N-methylcarbamate for better handling/standardization.'
p5039
asg187
S'naphthalen-1-yl N-methylcarbamate'
p5040
sg13
I6129
sg189
F0.1
sg190
F-9.45
sg16
(lp5041
S'carbamic acid ester (urethane)'
p5042
aS'aromatic'
p5043
asg193
F-10.92
sg194
g195
ssS'mobley_8124669'
p5044
(dp5045
g3
S'CCc1cccc(c1N(COC)C(=O)CCl)CC'
p5046
sg183
g184
sg185
F0.05
sg8
(lp5047
g29
asg187
S'alachlor'
p5048
sg13
I2078
sg189
F0.29
sg190
F-8.21
sg16
(lp5049
S'hemiaminal'
p5050
aS'alkyl chloride'
p5051
aS'tertiary carboxylic acid amide'
p5052
aS'aromatic'
p5053
asg193
F-7.28
sg194
g195
ssS'mobley_1728386'
p5054
(dp5055
g3
S'c1ccc(cc1)C(=O)N'
p5056
sg5
g6
sg7
F0.1
sg8
(lp5057
g10
asg11
S'benzamide'
p5058
sg13
I2331
sg14
F0.2
sg15
F-11.0
sg16
(lp5059
S'primary carboxylic acid amide'
p5060
aS'aromatic'
p5061
asg19
F-9.9
sg20
g21
ssS'mobley_9100956'
p5062
(dp5063
g3
S'CC1CCCCC1'
p5064
sg25
g26
sg27
F0.02
sg8
(lp5065
g29
asg30
S'methylcyclohexane'
p5066
sg13
I7962
sg14
F0.6
sg32
F1.7
sg16
(lp5067
S''
p5068
asg37
F1.82
sg38
g39
ssS'mobley_7768165'
p5069
(dp5070
g3
S'C(CBr)Cl'
p5071
sg25
g26
sg27
F0.02
sg8
(lp5072
g29
asg30
S'1-bromo-2-chloro-ethane'
p5073
sg13
I7849
sg14
F0.6
sg32
F-1.95
sg16
(lp5074
S'alkyl chloride'
p5075
aS'alkyl bromide'
p5076
asg37
F0.02
sg38
g39
ssS'mobley_664966'
p5077
(dp5078
g3
S'C(I)I'
p5079
sg25
g26
sg27
F0.02
sg8
(lp5080
g29
asg30
S'diiodomethane'
p5081
sg13
I6346
sg14
F0.6
sg32
F-2.49
sg16
(lp5082
S'alkyl iodide'
p5083
asg37
F-0.74
sg38
g39
ssS'mobley_852937'
p5084
(dp5085
g3
S'c1cc(ccc1O)F'
p5086
sg25
g26
sg27
F0.03
sg8
(lp5087
g29
asg30
S'4-fluorophenol'
p5088
sg13
I9732
sg14
F0.6
sg32
F-6.19
sg16
(lp5089
S'phenol or hydroxyhetarene'
p5090
aS'aryl fluoride'
p5091
aS'aromatic'
p5092
asg37
F-4.99
sg38
g39
ssS'mobley_8789864'
p5093
(dp5094
g3
S'COC(CC#N)(OC)OC'
p5095
sg25
g43
sg27
F0.04
sg8
(lp5096
g29
asg30
S'3,3,3-trimethoxypropanenitrile'
p5097
sg13
I144381
sg14
F0.6
sg32
F-6.4
sg16
(lp5098
S'carbonitrile'
p5099
aS'orthocarboxylic acid derivative'
p5100
aS'orthoester'
p5101
asg37
F-5.74
sg38
g39
ssS'mobley_7364468'
p5102
(dp5103
g3
S'CC1=CC(=O)CC(C1)(C)C'
p5104
sg183
g184
sg185
F0.03
sg8
(lp5105
g29
aS'Changed IUPAC name from isophorone to 3,5,5-trimethylcyclohex-2-en-1-one for better handling/standardization.'
p5106
asg187
S'3,5,5-trimethylcyclohex-2-en-1-one'
p5107
sg13
I6544
sg189
F1.37
sg190
F-5.18
sg16
(lp5108
S'ketone'
p5109
aS'alkene'
p5110
asg193
F-3.82
sg194
g195
ssS'mobley_3414356'
p5111
(dp5112
g3
S'CCCC(C)(C)O'
p5113
sg25
g26
sg27
F0.02
sg8
(lp5114
g29
asg30
S'2-methylpentan-2-ol'
p5115
sg13
I11543
sg14
F0.6
sg32
F-3.92
sg16
(lp5116
S'tertiary alcohol'
p5117
asg37
F-2.79
sg38
g39
ssS'mobley_778352'
p5118
(dp5119
g3
S'CC=C(C)C'
p5120
sg25
g4422
sg27
F0.02
sg8
(lp5121
g29
asg30
S'2-methylbut-2-ene'
p5122
sg13
I10553
sg14
F0.6
sg32
F1.31
sg16
(lp5123
S'alkene'
p5124
asg37
F2.28
sg38
g39
ssS'mobley_7708038'
p5125
(dp5126
g3
S'CCCBr'
p5127
sg25
g26
sg27
F0.02
sg8
(lp5128
g29
asg30
S'1-bromopropane'
p5129
sg13
I7840
sg14
F0.6
sg32
F-0.56
sg16
(lp5130
S'alkyl bromide'
p5131
asg37
F1.29
sg38
g39
ssS'mobley_1424265'
p5132
(dp5133
g3
S'Cc1cccc(c1)C'
p5134
sg25
g26
sg27
F0.02
sg8
(lp5135
g29
asg30
S'm-xylene'
p5136
sg13
I7929
sg14
F0.6
sg32
F-0.83
sg16
(lp5137
S'aromatic'
p5138
asg37
F-0.17
sg38
g39
ssS'mobley_7610437'
p5139
(dp5140
g3
S'CC[C@H](C(C)C)O'
p5141
sg25
g26
sg27
F0.03
sg8
(lp5142
S'Renamed mobley_7610437 from 2-methylpentan-3-ol to (3R)-2-methylpentan-3-ol (the name from the 3D structure) since the former did not completely specify stereochemistry.\n'
p5143
asg30
S'2-methylpentan-3-ol'
p5144
sg13
I11264
sg14
F0.6
sg32
F-3.88
sg16
(lp5145
S'secondary alcohol'
p5146
asg37
F-2.19
sg38
g39
ssS'mobley_4609460'
p5147
(dp5148
g3
S'CCOC(=O)c1ccc(cc1)O'
p5149
sg424
g425
sg426
F0.06
sg8
(lp5150
g29
asg428
S'ethyl paraben'
p5151
sg13
I8434
sg430
F0.3
sg431
F-9.2
sg16
(lp5152
S'phenol or hydroxyhetarene'
p5153
aS'carboxylic acid ester'
p5154
aS'aromatic'
p5155
asg437
F-9.57
sg438
g439
ssS'mobley_8713762'
p5156
(dp5157
g3
S'CCCN(CCC)C(=O)SCCC'
p5158
sg183
g184
sg185
F0.04
sg8
(lp5159
g29
aS'Changed IUPAC name from vernolate to N,N-dipropyl(propylsulfanyl)formamide for better handling/standardization.'
p5160
asg187
S'N,N-dipropyl(propylsulfanyl)formamide'
p5161
sg13
I16003
sg189
F1.36
sg190
F-4.13
sg16
(lp5162
S'thiocarbamic acid ester'
p5163
asg193
F-4.17
sg194
g195
ssS'mobley_2178600'
p5164
(dp5165
g3
S'CCCCCCl'
p5166
sg5
g6
sg7
F0.1
sg8
(lp5167
g10
asg11
S'1-chloro-pentane'
p5168
sg13
I10977
sg14
F0.2
sg15
F-0.1
sg16
(lp5169
S'alkyl chloride'
p5170
asg19
F1.1
sg20
g21
ssS'mobley_4936555'
p5171
(dp5172
g3
S'Cc1cccc(c1C)Nc2ccccc2C(=O)O'
p5173
sg270
g271
sg272
F0.025
sg8
(lp5174
g29
asg274
S'2-(2,3-dimethylphenyl)aminobenzoic acid'
p5175
sg13
I4044
sg276
g277
(g281
S'\x9a\x99\x99\x99\x99\x99\xb9?'
p5176
tp5177
Rp5178
sg287
g277
(g281
S'\x1f\x85\xebQ\xb8\x1e\x1b\xc0'
p5179
tp5180
Rp5181
sg16
(lp5182
S'secondary amine'
p5183
aS'secondary aromatic amine (diarylamine)'
p5184
aS'carboxylic acid'
p5185
aS'aromatic'
p5186
asg295
F-7.69
sg296
g297
ssS'mobley_1760914'
p5187
(dp5188
g3
S'Cc1ccccc1Cl'
p5189
sg25
g26
sg27
F0.02
sg8
(lp5190
g29
asg30
S'1-chloro-2-methyl-benzene'
p5191
sg13
I7238
sg14
F0.6
sg32
F-1.14
sg16
(lp5192
S'aryl chloride'
p5193
aS'aromatic'
p5194
asg37
F-0.51
sg38
g39
ssS'mobley_9883303'
p5195
(dp5196
g3
S'CCC[C@H](C)CC'
p5197
sg25
g26
sg27
F0.02
sg8
(lp5198
S'Renamed mobley_9883303 from 3-methylhexane to (3R)-3-methylhexane (the name from the 3D structure) since the former did not completely specify stereochemistry.\n'
p5199
asg30
S'3-methylhexane'
p5200
sg13
I11507
sg14
F0.6
sg32
F2.71
sg16
(lp5201
S''
p5202
asg37
F2.76
sg38
g39
ssS'mobley_9029594'
p5203
(dp5204
g3
S'CF'
p5205
sg25
g26
sg27
F0.01
sg8
(lp5206
g29
asg30
S'fluoromethane'
p5207
sg13
I11638
sg14
F0.6
sg32
F-0.22
sg16
(lp5208
S'alkyl fluoride'
p5209
asg37
F0.79
sg38
g39
ssS'mobley_1502181'
p5210
(dp5211
g3
S'CCCCCCCC(=O)C'
p5212
sg25
g26
sg27
F0.03
sg8
(lp5213
g29
asg30
S'nonan-2-one'
p5214
sg13
I13187
sg14
F0.6
sg32
F-2.49
sg16
(lp5215
S'ketone'
p5216
asg37
F-2.51
sg38
g39
ssS'mobley_9478823'
p5217
(dp5218
g3
S'Cc1ccccc1C'
p5219
sg25
g26
sg27
F0.02
sg8
(lp5220
g29
asg30
S'o-xylene'
p5221
sg13
I7237
sg14
F0.6
sg32
F-0.9
sg16
(lp5222
S'aromatic'
p5223
asg37
F-0.52
sg38
g39
ssS'mobley_9201263'
p5224
(dp5225
g3
S'COS(=O)(=O)C'
p5226
sg25
g1353
sg27
F0.03
sg8
(lp5227
g29
asg30
S'methyl methanesulfonate'
p5228
sg13
I4156
sg14
F0.6
sg32
F-4.87
sg16
(lp5229
S'sulfonic acid ester'
p5230
asg37
F-8.29
sg38
g39
ssS'mobley_2613240'
p5231
(dp5232
g3
S'COc1ccccc1OC'
p5233
sg270
g271
sg272
F0.021
sg8
(lp5234
g29
asg274
S'1,2-dimethoxybenzene'
p5235
sg13
I7043
sg276
g277
(g281
S'\x9a\x99\x99\x99\x99\x99\xb9?'
p5236
tp5237
Rp5238
sg287
g277
(g281
S'R\xb8\x1e\x85\xebQ\x15\xc0'
p5239
tp5240
Rp5241
sg16
(lp5242
S'alkyl aryl ether'
p5243
aS'aromatic'
p5244
asg295
F-3.52
sg296
g297
ssS'mobley_7769613'
p5245
(dp5246
g3
S'CC(C)(C)Br'
p5247
sg25
g26
sg27
F0.02
sg8
(lp5248
g29
asg30
S'2-bromo-2-methyl-propane'
p5249
sg13
I10485
sg14
F0.6
sg32
F0.84
sg16
(lp5250
S'alkyl bromide'
p5251
asg37
F0.89
sg38
g39
ssS'mobley_4434915'
p5252
(dp5253
g3
S'CCl'
p5254
sg25
g26
sg27
F0.01
sg8
(lp5255
g29
asg30
S'chloromethane'
p5256
sg13
I6327
sg14
F0.6
sg32
F-0.55
sg16
(lp5257
S'alkyl chloride'
p5258
asg37
F0.81
sg38
g39
ssS'mobley_2410897'
p5259
(dp5260
g3
S'CCN'
p5261
sg25
g26
sg27
F0.02
sg8
(lp5262
g29
asg30
S'ethanamine'
p5263
sg13
I6341
sg14
F0.6
sg32
F-4.5
sg16
(lp5264
S'primary amine'
p5265
aS'primary aliphatic amine (alkylamine)'
p5266
asg37
F-3.14
sg38
g39
ssS'mobley_5003962'
p5267
(dp5268
g3
S'c1ccc2c(c1)C(=O)c3ccc(cc3C2=O)N'
p5269
sg270
g271
sg272
F0.026
sg8
(lp5270
g29
asg274
S'2-amino-9,10-anthraquinone'
p5271
sg13
I8341
sg276
g277
(g281
S'\x8f\xc2\xf5(\\\x8f\xd2?'
p5272
tp5273
Rp5274
sg287
g277
(g281
S"\x8f\xc2\xf5(\\\x0f'\xc0"
p5275
tp5276
Rp5277
sg16
(lp5278
S'ketone'
p5279
aS'primary amine'
p5280
aS'primary aromatic amine'
p5281
aS'aromatic'
p5282
asg295
F-13.71
sg296
g297
ssS'mobley_1929982'
p5283
(dp5284
g3
S'S'
p5285
sg25
g26
sg27
F0.01
sg8
(lp5286
g29
asg30
S'hydrogen sulfide'
p5287
sg13
I402
sg14
F0.6
sg32
F-0.7
sg16
(lp5288
S''
p5289
asg37
F-1.17
sg38
g39
ssS'mobley_1650157'
p5290
(dp5291
g3
S'CC(C)(C)O'
p5292
sg25
g26
sg27
F0.02
sg8
(lp5293
g29
asg30
S'2-methylpropan-2-ol'
p5294
sg13
I6386
sg14
F0.6
sg32
F-4.47
sg16
(lp5295
S'tertiary alcohol'
p5296
asg37
F-3.09
sg38
g39
ssS'mobley_5935995'
p5297
(dp5298
g3
S'CCC(C)(C)C'
p5299
sg25
g26
sg27
F0.02
sg8
(lp5300
g29
asg30
S'2,2-dimethylbutane'
p5301
sg13
I6403
sg14
F0.6
sg32
F2.51
sg16
(lp5302
S''
p5303
asg37
F2.53
sg38
g39
ssS'mobley_8048190'
p5304
(dp5305
g3
S'CC(=O)N'
p5306
sg25
g26
sg27
F0.03
sg8
(lp5307
g29
asg30
S'acetamide'
p5308
sg13
I178
sg14
F0.6
sg32
F-9.71
sg16
(lp5309
S'primary carboxylic acid amide'
p5310
asg37
F-8.62
sg38
g39
ssS'mobley_5917842'
p5311
(dp5312
g3
S'Cc1ccc(c(c1)OC)O'
p5313
sg270
g271
sg272
F0.021
sg8
(lp5314
g29
asg274
S'4-methyl-2-methoxyphenol'
p5315
sg13
I7144
sg276
g277
(g281
S'\x9a\x99\x99\x99\x99\x99\xb9?'
p5316
tp5317
Rp5318
sg287
g277
(g281
S'333333\x17\xc0'
p5319
tp5320
Rp5321
sg16
(lp5322
S'phenol or hydroxyhetarene'
p5323
aS'alkyl aryl ether'
p5324
aS'aromatic'
p5325
asg295
F-4.46
sg296
g297
ssS'mobley_7106722'
p5326
(dp5327
g3
S'CCCC(C)C'
p5328
sg25
g26
sg27
F0.02
sg8
(lp5329
g29
asg30
S'isohexane'
p5330
sg13
I7892
sg14
F0.6
sg32
F2.51
sg16
(lp5331
S''
p5332
asg37
F2.78
sg38
g39
ssS'mobley_8883511'
p5333
(dp5334
g3
S'Cc1ccccc1C=O'
p5335
sg270
g271
sg272
F0.019
sg8
(lp5336
g29
asg274
S'2-methylbenzaldehyde'
p5337
sg13
I10722
sg276
g277
(g281
S'\x9a\x99\x99\x99\x99\x99\xb9?'
p5338
tp5339
Rp5340
sg287
g277
(g281
S'q=\n\xd7\xa3p\x0f\xc0'
p5341
tp5342
Rp5343
sg16
(lp5344
S'aldehyde'
p5345
aS'aromatic'
p5346
asg295
F-4.64
sg296
g297
ssS'mobley_7732703'
p5347
(dp5348
g3
S'C(F)(F)(F)Br'
p5349
sg25
g26
sg27
F0.02
sg8
(lp5350
g29
asg30
S'bromo-trifluoro-methane'
p5351
sg13
I6384
sg14
F0.6
sg32
F1.79
sg16
(lp5352
S'halogen derivative'
p5353
asg37
F2.03
sg38
g39
ssS'mobley_3639400'
p5354
(dp5355
g3
S'CCCCCl'
p5356
sg25
g26
sg27
F0.02
sg8
(lp5357
g29
asg30
S'1-chlorobutane'
p5358
sg13
I8005
sg14
F0.6
sg32
F-0.16
sg16
(lp5359
S'alkyl chloride'
p5360
asg37
F0.99
sg38
g39
ssS'mobley_9185328'
p5361
(dp5362
g3
S'CCCN'
p5363
sg25
g26
sg27
F0.02
sg8
(lp5364
g29
asg30
S'propan-1-amine'
p5365
sg13
I7852
sg14
F0.6
sg32
F-4.39
sg16
(lp5366
S'primary amine'
p5367
aS'primary aliphatic amine (alkylamine)'
p5368
asg37
F-3.05
sg38
g39
ssS'mobley_7455579'
p5369
(dp5370
g3
S'CC(C)COC=O'
p5371
sg25
g26
sg27
F0.02
sg8
(lp5372
g29
asg30
S'isobutyl formate'
p5373
sg13
I10957
sg14
F0.6
sg32
F-2.22
sg16
(lp5374
S'carboxylic acid ester'
p5375
asg37
F-3.21
sg38
g39
ssS'mobley_8337977'
p5376
(dp5377
g3
S'CC(C)CC(=O)C'
p5378
sg25
g26
sg27
F0.02
sg8
(lp5379
g29
asg30
S'4-methylpentan-2-one'
p5380
sg13
I7909
sg14
F0.6
sg32
F-3.05
sg16
(lp5381
S'ketone'
p5382
asg37
F-2.96
sg38
g39
ssS'mobley_5347550'
p5383
(dp5384
g3
S'COC(C(Cl)Cl)(F)F'
p5385
sg25
g26
sg27
F0.02
sg8
(lp5386
g29
asg30
S'2,2-dichloro-1,1-difluoro-1-methoxy-ethane'
p5387
sg13
I4116
sg14
F0.6
sg32
F-1.12
sg16
(lp5388
S'alkyl chloride'
p5389
aS'orthocarboxylic acid derivative'
p5390
asg37
F-0.71
sg38
g39
ssS'mobley_1733799'
p5391
(dp5392
g3
S'c1cc(ccc1O)Br'
p5393
sg25
S'10.1039/J29710000533 and 10.1007/BF00646936'
p5394
sg27
F0.02
sg8
(lp5395
g29
aS'Experimental value updated 10/22/13 from J. Peter Guthrie (University of Western Ontario) taken as a weighted average of the values -7.13 from a Cabani review, and -5.24 from experimental data from Parsons, Rochester, and Wood (see reference). The weighting gives preference to the latter since it gives source data.\n'
p5396
asg30
S'4-bromophenol'
p5397
sg13
I7808
sg14
F0.83
sg32
F-5.85
sg16
(lp5398
S'phenol or hydroxyhetarene'
p5399
aS'aryl bromide'
p5400
aS'aromatic'
p5401
asg37
F-5.47
sg38
g39
ssS'mobley_5494918'
p5402
(dp5403
g3
S'C(=C(F)F)(C(F)(F)F)F'
p5404
sg25
S'10.1021/cr60306a003'
p5405
sg27
F0.02
sS'notes'
p5406
(lp5407
S'Updated correcting an error in the Rizzo/Mobley sets that had arisen from confusing the abbreviation HFP with hexafluoropropan-2-ol versus hexafluoropropene. Reference: Wilhelm, E., Battino, R., Wilcock, R. J., Chem. Rev. 1977, 77, 223-262.\n'
p5408
ag29
asg30
S'1,1,2,3,3,3-hexafluoroprop-1-ene'
p5409
sg13
I83439
sg14
F0.6
sg32
F2.93
sg16
(lp5410
S'halogen derivative'
p5411
asg37
F2.29
sg38
g39
ssS'mobley_7010316'
p5412
(dp5413
g3
S'C1CCC(CC1)O'
p5414
sg25
g26
sg27
F0.02
sg8
(lp5415
g29
asg30
S'cyclohexanol'
p5416
sg13
I7966
sg14
F0.6
sg32
F-5.46
sg16
(lp5417
S'secondary alcohol'
p5418
asg37
F-4.26
sg38
g39
ssS'mobley_8320545'
p5419
(dp5420
g3
S'CC[N+](=O)[O-]'
p5421
sg25
g26
sg27
F0.02
sg8
(lp5422
g29
asg30
S'1-nitroethane'
p5423
sg13
I6587
sg14
F0.6
sg32
F-3.71
sg16
(lp5424
S'nitro'
p5425
asg37
F-1.73
sg38
g39
ssS'mobley_3775790'
p5426
(dp5427
g3
S'Cn1cccc1'
p5428
sg25
g26
sg27
F0.02
sg8
(lp5429
g29
asg30
S'1-methylpyrrole'
p5430
sg13
I7304
sg14
F0.6
sg32
F-2.89
sg16
(lp5431
S'aromatic'
p5432
aS'heterocyclic'
p5433
asg37
F-2.59
sg38
g39
ssS'mobley_7157427'
p5434
(dp5435
g3
S'CCCCCCCCl'
p5436
sg25
g26
sg27
F0.03
sg8
(lp5437
g29
asg30
S'1-chloroheptane'
p5438
sg13
I12371
sg14
F0.6
sg32
F0.29
sg16
(lp5439
S'alkyl chloride'
p5440
asg37
F1.53
sg38
g39
ssS'mobley_7814642'
p5441
(dp5442
g3
S'c1cc(c(cc1Cl)Cl)Cl'
p5443
sg25
g26
sg27
F0.02
sg8
(lp5444
g29
asg30
S'1,2,4-trichlorobenzene'
p5445
sg13
I13
sg14
F0.6
sg32
F-1.12
sg16
(lp5446
S'aryl chloride'
p5447
aS'aromatic'
p5448
asg37
F-0.18
sg38
g39
ssS'mobley_3715043'
p5449
(dp5450
g3
S'Cc1ccc(c2c1cccc2)C'
p5451
sg25
g26
sg27
F0.03
sg8
(lp5452
g29
asg30
S'1,4-dimethylnaphthalene'
p5453
sg13
I11304
sg14
F0.6
sg32
F-2.82
sg16
(lp5454
S'aromatic'
p5455
asg37
F-3.29
sg38
g39
ssS'mobley_5263791'
p5456
(dp5457
g3
S'CCc1cccc2c1cccc2'
p5458
sg25
g26
sg27
F0.03
sg8
(lp5459
g29
asg30
S'1-ethylnaphthalene'
p5460
sg13
I14315
sg14
F0.6
sg32
F-2.4
sg16
(lp5461
S'aromatic'
p5462
asg37
F-3.0
sg38
g39
ss.